 MarvellCheckPhyRate_v1.0.2

 Timestamp is 5e5e0986 (Tue Mar 03 16:38:46 2020)

 Preferred load address is 00400000

 Start         Length     Name                   Class
 0001:00000000 00000148H .idata$5                CODE
 0001:00000148 000001ecH .rdata                  CODE
 0001:00000340 00008bd4H .text                   CODE
 0001:00008f20 00000004H .text$0                 CODE
 0001:00008f30 00005190H .text$1                 CODE
 0001:0000e0c0 00000004H .text$2                 CODE
 0001:0000e0c4 00000014H .idata$2                CODE
 0001:0000e0d8 00000014H .idata$3                CODE
 0001:0000e0ec 00000148H .idata$4                CODE
 0001:0000e234 00000418H .idata$6                CODE
 0001:0000e64c 00000000H .edata                  CODE
 0002:00000000 00000004H .data                   DATA
 0002:00000008 00000b14H .bss                    DATA
 0003:00000000 00000118H .rsrc$01                DATA
 0003:00000120 00000702H .rsrc$02                DATA

  Address         Publics by Value              Rva+Base     Lib:Object

 0001:00000000       __imp___CIcos              00401000     MarvellCheckPhyRate_v1.0.2.OBJ
 0001:00000004       __imp___adj_fptan          00401004     MarvellCheckPhyRate_v1.0.2.OBJ
 0001:00000008       __imp____vba@075656E4      00401008     MarvellCheckPhyRate_v1.0.2.OBJ
 0001:00000008       __imp_@__vba@075656E4      00401008     MarvellCheckPhyRate_v1.0.2.OBJ
 0001:0000000c       __imp_@__vbaFreeVar        0040100c     MarvellCheckPhyRate_v1.0.2.OBJ
 0001:0000000c       __imp____vbaFreeVar        0040100c     MarvellCheckPhyRate_v1.0.2.OBJ
 0001:00000010       __imp_@__vbaLateIdCall     00401010     MarvellCheckPhyRate_v1.0.2.OBJ
 0001:00000010       __imp____vbaLateIdCall     00401010     MarvellCheckPhyRate_v1.0.2.OBJ
 0001:00000014       __imp____vbaStrVarMove     00401014     MarvellCheckPhyRate_v1.0.2.OBJ
 0001:00000014       __imp_@__vbaStrVarMove     00401014     MarvellCheckPhyRate_v1.0.2.OBJ
 0001:00000018       __imp____vbaLenBstr        00401018     MarvellCheckPhyRate_v1.0.2.OBJ
 0001:00000018       __imp_@__vbaLenBstr        00401018     MarvellCheckPhyRate_v1.0.2.OBJ
 0001:0000001c       __imp____vbaFreeVarList    0040101c     MarvellCheckPhyRate_v1.0.2.OBJ
 0001:0000001c       __imp_@__vbaFreeVarList    0040101c     MarvellCheckPhyRate_v1.0.2.OBJ
 0001:00000020       __imp_@__vbaEnd            00401020     MarvellCheckPhyRate_v1.0.2.OBJ
 0001:00000020       __imp____vbaEnd            00401020     MarvellCheckPhyRate_v1.0.2.OBJ
 0001:00000024       __imp___adj_fdiv_m64       00401024     MarvellCheckPhyRate_v1.0.2.OBJ
 0001:00000028       __imp____vbaFreeObjList    00401028     MarvellCheckPhyRate_v1.0.2.OBJ
 0001:00000028       __imp_@__vbaFreeObjList    00401028     MarvellCheckPhyRate_v1.0.2.OBJ
 0001:0000002c       __imp_@__vba@07564638      0040102c     MarvellCheckPhyRate_v1.0.2.OBJ
 0001:0000002c       __imp____vba@07564638      0040102c     MarvellCheckPhyRate_v1.0.2.OBJ
 0001:00000030       __imp___adj_fprem1         00401030     MarvellCheckPhyRate_v1.0.2.OBJ
 0001:00000034       __imp_@__vbaStrCat         00401034     MarvellCheckPhyRate_v1.0.2.OBJ
 0001:00000034       __imp____vbaStrCat         00401034     MarvellCheckPhyRate_v1.0.2.OBJ
 0001:00000038       __imp____vbaHresultCheckObj 00401038     MarvellCheckPhyRate_v1.0.2.OBJ
 0001:00000038       __imp_@__vbaHresultCheckObj 00401038     MarvellCheckPhyRate_v1.0.2.OBJ
 0001:0000003c       __imp___adj_fdiv_m32       0040103c     MarvellCheckPhyRate_v1.0.2.OBJ
 0001:00000048       __imp____vbaObjSet         00401048     MarvellCheckPhyRate_v1.0.2.OBJ
 0001:00000048       __imp_@__vbaObjSet         00401048     MarvellCheckPhyRate_v1.0.2.OBJ
 0001:0000004c       __imp_@__vbaOnError        0040104c     MarvellCheckPhyRate_v1.0.2.OBJ
 0001:0000004c       __imp____vbaOnError        0040104c     MarvellCheckPhyRate_v1.0.2.OBJ
 0001:00000050       __imp____vba@07565CC4      00401050     MarvellCheckPhyRate_v1.0.2.OBJ
 0001:00000050       __imp_@__vba@07565CC4      00401050     MarvellCheckPhyRate_v1.0.2.OBJ
 0001:00000054       __imp___adj_fdiv_m16i      00401054     MarvellCheckPhyRate_v1.0.2.OBJ
 0001:0000005c       __imp____vbaObjSetAddref   0040105c     MarvellCheckPhyRate_v1.0.2.OBJ
 0001:0000005c       __imp_@__vbaObjSetAddref   0040105c     MarvellCheckPhyRate_v1.0.2.OBJ
 0001:00000060       __imp___adj_fdivr_m16i     00401060     MarvellCheckPhyRate_v1.0.2.OBJ
 0001:00000068       __imp____vba@07565538      00401068     MarvellCheckPhyRate_v1.0.2.OBJ
 0001:00000068       __imp_@__vba@07565538      00401068     MarvellCheckPhyRate_v1.0.2.OBJ
 0001:00000074       __imp____vbaBoolVarNull    00401074     MarvellCheckPhyRate_v1.0.2.OBJ
 0001:00000074       __imp_@__vbaBoolVarNull    00401074     MarvellCheckPhyRate_v1.0.2.OBJ
 0001:00000078       __imp_@__vbaFpR8           00401078     MarvellCheckPhyRate_v1.0.2.OBJ
 0001:00000078       __imp____vbaFpR8           00401078     MarvellCheckPhyRate_v1.0.2.OBJ
 0001:0000007c       __imp___CIsin              0040107c     MarvellCheckPhyRate_v1.0.2.OBJ
 0001:00000080       __imp_@__vba@0756583C      00401080     MarvellCheckPhyRate_v1.0.2.OBJ
 0001:00000080       __imp____vba@0756583C      00401080     MarvellCheckPhyRate_v1.0.2.OBJ
 0001:00000084       __imp____vbaChkstk         00401084     MarvellCheckPhyRate_v1.0.2.OBJ
 0001:0000008c       __imp_@__vbaGenerateBoundsError 0040108c     MarvellCheckPhyRate_v1.0.2.OBJ
 0001:0000008c       __imp____vbaGenerateBoundsError 0040108c     MarvellCheckPhyRate_v1.0.2.OBJ
 0001:00000090       __imp_@__vbaStrCmp         00401090     MarvellCheckPhyRate_v1.0.2.OBJ
 0001:00000090       __imp____vbaStrCmp         00401090     MarvellCheckPhyRate_v1.0.2.OBJ
 0001:00000094       __imp____vba@075659F8      00401094     MarvellCheckPhyRate_v1.0.2.OBJ
 0001:00000094       __imp_@__vba@075659F8      00401094     MarvellCheckPhyRate_v1.0.2.OBJ
 0001:00000098       __imp____vbaI2I4           00401098     MarvellCheckPhyRate_v1.0.2.OBJ
 0001:00000098       __imp_@__vbaI2I4           00401098     MarvellCheckPhyRate_v1.0.2.OBJ
 0001:000000a0       __imp___adj_fpatan         004010a0     MarvellCheckPhyRate_v1.0.2.OBJ
 0001:000000a4       __imp____vbaLateIdCallLd   004010a4     MarvellCheckPhyRate_v1.0.2.OBJ
 0001:000000a4       __imp_@__vbaLateIdCallLd   004010a4     MarvellCheckPhyRate_v1.0.2.OBJ
 0001:000000ac       __imp____vba@0755FE40      004010ac     MarvellCheckPhyRate_v1.0.2.OBJ
 0001:000000ac       __imp_@__vba@0755FE40      004010ac     MarvellCheckPhyRate_v1.0.2.OBJ
 0001:000000b0       __imp_@__vbaUI1I2          004010b0     MarvellCheckPhyRate_v1.0.2.OBJ
 0001:000000b0       __imp____vbaUI1I2          004010b0     MarvellCheckPhyRate_v1.0.2.OBJ
 0001:000000b4       __imp___CIsqrt             004010b4     MarvellCheckPhyRate_v1.0.2.OBJ
 0001:000000b8       __imp____vbaVarAnd         004010b8     MarvellCheckPhyRate_v1.0.2.OBJ
 0001:000000b8       __imp_@__vbaVarAnd         004010b8     MarvellCheckPhyRate_v1.0.2.OBJ
 0001:000000c0       __imp_@__vbaStrUI1         004010c0     MarvellCheckPhyRate_v1.0.2.OBJ
 0001:000000c0       __imp____vbaStrUI1         004010c0     MarvellCheckPhyRate_v1.0.2.OBJ
 0001:000000c4       __imp____vbaExceptHandler  004010c4     MarvellCheckPhyRate_v1.0.2.OBJ
 0001:000000c8       __imp___adj_fprem          004010c8     MarvellCheckPhyRate_v1.0.2.OBJ
 0001:000000cc       __imp___adj_fdivr_m64      004010cc     MarvellCheckPhyRate_v1.0.2.OBJ
 0001:000000d0       __imp____vbaFPException    004010d0     MarvellCheckPhyRate_v1.0.2.OBJ
 0001:000000d4       __imp____vbaStrCompVar     004010d4     MarvellCheckPhyRate_v1.0.2.OBJ
 0001:000000d4       __imp_@__vbaStrCompVar     004010d4     MarvellCheckPhyRate_v1.0.2.OBJ
 0001:000000d8       __imp____vbaStrVarVal      004010d8     MarvellCheckPhyRate_v1.0.2.OBJ
 0001:000000d8       __imp_@__vbaStrVarVal      004010d8     MarvellCheckPhyRate_v1.0.2.OBJ
 0001:000000dc       __imp_@__vba@0755FD74      004010dc     MarvellCheckPhyRate_v1.0.2.OBJ
 0001:000000dc       __imp____vba@0755FD74      004010dc     MarvellCheckPhyRate_v1.0.2.OBJ
 0001:000000e0       __imp____vbaI2Var          004010e0     MarvellCheckPhyRate_v1.0.2.OBJ
 0001:000000e0       __imp_@__vbaI2Var          004010e0     MarvellCheckPhyRate_v1.0.2.OBJ
 0001:000000e4       __imp_@__vba@07564670      004010e4     MarvellCheckPhyRate_v1.0.2.OBJ
 0001:000000e4       __imp____vba@07564670      004010e4     MarvellCheckPhyRate_v1.0.2.OBJ
 0001:000000e8       __imp___CIlog              004010e8     MarvellCheckPhyRate_v1.0.2.OBJ
 0001:000000ec       __imp____vbaErrorOverflow  004010ec     MarvellCheckPhyRate_v1.0.2.OBJ
 0001:000000ec       __imp_@__vbaErrorOverflow  004010ec     MarvellCheckPhyRate_v1.0.2.OBJ
 0001:000000f0       __imp____vbaNew2           004010f0     MarvellCheckPhyRate_v1.0.2.OBJ
 0001:000000f0       __imp_@__vbaNew2           004010f0     MarvellCheckPhyRate_v1.0.2.OBJ
 0001:000000f4       __imp____vbaInStr          004010f4     MarvellCheckPhyRate_v1.0.2.OBJ
 0001:000000f4       __imp_@__vbaInStr          004010f4     MarvellCheckPhyRate_v1.0.2.OBJ
 0001:000000f8       __imp___adj_fdiv_m32i      004010f8     MarvellCheckPhyRate_v1.0.2.OBJ
 0001:000000fc       __imp___adj_fdivr_m32i     004010fc     MarvellCheckPhyRate_v1.0.2.OBJ
 0001:00000100       __imp____vbaStrCopy        00401100     MarvellCheckPhyRate_v1.0.2.OBJ
 0001:00000100       __imp_@__vbaStrCopy        00401100     MarvellCheckPhyRate_v1.0.2.OBJ
 0001:00000104       __imp_@__vbaI4Str          00401104     MarvellCheckPhyRate_v1.0.2.OBJ
 0001:00000104       __imp____vbaI4Str          00401104     MarvellCheckPhyRate_v1.0.2.OBJ
 0001:00000108       __imp____vbaFreeStrList    00401108     MarvellCheckPhyRate_v1.0.2.OBJ
 0001:00000108       __imp_@__vbaFreeStrList    00401108     MarvellCheckPhyRate_v1.0.2.OBJ
 0001:0000010c       __imp___adj_fdivr_m32      0040110c     MarvellCheckPhyRate_v1.0.2.OBJ
 0001:00000110       __imp___adj_fdiv_r         00401110     MarvellCheckPhyRate_v1.0.2.OBJ
 0001:00000118       __imp____vbaVarCmpEq       00401118     MarvellCheckPhyRate_v1.0.2.OBJ
 0001:00000118       __imp_@__vbaVarCmpEq       00401118     MarvellCheckPhyRate_v1.0.2.OBJ
 0001:0000011c       __imp_@__vbaVarDup         0040111c     MarvellCheckPhyRate_v1.0.2.OBJ
 0001:0000011c       __imp____vbaVarDup         0040111c     MarvellCheckPhyRate_v1.0.2.OBJ
 0001:00000120       __imp___CIatan             00401120     MarvellCheckPhyRate_v1.0.2.OBJ
 0001:00000124       __imp____vbaStrMove        00401124     MarvellCheckPhyRate_v1.0.2.OBJ
 0001:00000124       __imp_@__vbaStrMove        00401124     MarvellCheckPhyRate_v1.0.2.OBJ
 0001:00000128       __imp___allmul             00401128     MarvellCheckPhyRate_v1.0.2.OBJ
 0001:0000012c       __imp____vbaLateIdSt       0040112c     MarvellCheckPhyRate_v1.0.2.OBJ
 0001:0000012c       __imp_@__vbaLateIdSt       0040112c     MarvellCheckPhyRate_v1.0.2.OBJ
 0001:00000130       __imp___CItan              00401130     MarvellCheckPhyRate_v1.0.2.OBJ
 0001:00000134       __imp___CIexp              00401134     MarvellCheckPhyRate_v1.0.2.OBJ
 0001:00000138       __imp_@__vbaFreeObj        00401138     MarvellCheckPhyRate_v1.0.2.OBJ
 0001:00000138       __imp____vbaFreeObj        00401138     MarvellCheckPhyRate_v1.0.2.OBJ
 0001:0000013c       __imp_@__vbaFreeStr        0040113c     MarvellCheckPhyRate_v1.0.2.OBJ
 0001:0000013c       __imp____vbaFreeStr        0040113c     MarvellCheckPhyRate_v1.0.2.OBJ
 0001:00000140       __imp____vba@07565500      00401140     MarvellCheckPhyRate_v1.0.2.OBJ
 0001:00000140       __imp_@__vba@07565500      00401140     MarvellCheckPhyRate_v1.0.2.OBJ
 0001:00000340       ___vbaChkstk               00401340     MarvellCheckPhyRate_v1.0.2.OBJ
 0001:00000340       VB@TEXT                    00401340     MarvellCheckPhyRate_v1.0.2.OBJ
 0001:00000346       ___vbaExceptHandler        00401346     MarvellCheckPhyRate_v1.0.2.OBJ
 0001:0000034c       ___vbaFPException          0040134c     MarvellCheckPhyRate_v1.0.2.OBJ
 0001:00000352       __adj_fdiv_m16i            00401352     MarvellCheckPhyRate_v1.0.2.OBJ
 0001:00000358       __adj_fdiv_m32             00401358     MarvellCheckPhyRate_v1.0.2.OBJ
 0001:0000035e       __adj_fdiv_m32i            0040135e     MarvellCheckPhyRate_v1.0.2.OBJ
 0001:00000364       __adj_fdiv_m64             00401364     MarvellCheckPhyRate_v1.0.2.OBJ
 0001:0000036a       __adj_fdiv_r               0040136a     MarvellCheckPhyRate_v1.0.2.OBJ
 0001:00000370       __adj_fdivr_m16i           00401370     MarvellCheckPhyRate_v1.0.2.OBJ
 0001:00000376       __adj_fdivr_m32            00401376     MarvellCheckPhyRate_v1.0.2.OBJ
 0001:0000037c       __adj_fdivr_m32i           0040137c     MarvellCheckPhyRate_v1.0.2.OBJ
 0001:00000382       __adj_fdivr_m64            00401382     MarvellCheckPhyRate_v1.0.2.OBJ
 0001:00000388       __adj_fpatan               00401388     MarvellCheckPhyRate_v1.0.2.OBJ
 0001:0000038e       __adj_fprem                0040138e     MarvellCheckPhyRate_v1.0.2.OBJ
 0001:00000394       __adj_fprem1               00401394     MarvellCheckPhyRate_v1.0.2.OBJ
 0001:0000039a       __adj_fptan                0040139a     MarvellCheckPhyRate_v1.0.2.OBJ
 0001:000003a0       __CIatan                   004013a0     MarvellCheckPhyRate_v1.0.2.OBJ
 0001:000003a6       __CIcos                    004013a6     MarvellCheckPhyRate_v1.0.2.OBJ
 0001:000003ac       __CIexp                    004013ac     MarvellCheckPhyRate_v1.0.2.OBJ
 0001:000003b2       __CIlog                    004013b2     MarvellCheckPhyRate_v1.0.2.OBJ
 0001:000003b8       __CIsin                    004013b8     MarvellCheckPhyRate_v1.0.2.OBJ
 0001:000003be       __CIsqrt                   004013be     MarvellCheckPhyRate_v1.0.2.OBJ
 0001:000003c4       __CItan                    004013c4     MarvellCheckPhyRate_v1.0.2.OBJ
 0001:000003ca       __allmul                   004013ca     MarvellCheckPhyRate_v1.0.2.OBJ
 0001:000003d0       @__vbaStrUI1               004013d0     MarvellCheckPhyRate_v1.0.2.OBJ
 0001:000003d0       ___vbaStrUI1               004013d0     MarvellCheckPhyRate_v1.0.2.OBJ
 0001:000003d6       ___vba@07564638            004013d6     MarvellCheckPhyRate_v1.0.2.OBJ
 0001:000003d6       @__vba@07564638            004013d6     MarvellCheckPhyRate_v1.0.2.OBJ
 0001:000003dc       ___vba@07564670            004013dc     MarvellCheckPhyRate_v1.0.2.OBJ
 0001:000003dc       @__vba@07564670            004013dc     MarvellCheckPhyRate_v1.0.2.OBJ
 0001:000003e2       @__vbaGenerateBoundsError  004013e2     MarvellCheckPhyRate_v1.0.2.OBJ
 0001:000003e2       ___vbaGenerateBoundsError  004013e2     MarvellCheckPhyRate_v1.0.2.OBJ
 0001:000003e8       @__vbaUI1I2                004013e8     MarvellCheckPhyRate_v1.0.2.OBJ
 0001:000003e8       ___vbaUI1I2                004013e8     MarvellCheckPhyRate_v1.0.2.OBJ
 0001:000003ee       @__vbaLenBstr              004013ee     MarvellCheckPhyRate_v1.0.2.OBJ
 0001:000003ee       ___vbaLenBstr              004013ee     MarvellCheckPhyRate_v1.0.2.OBJ
 0001:000003f4       ___vbaFpR8                 004013f4     MarvellCheckPhyRate_v1.0.2.OBJ
 0001:000003f4       @__vbaFpR8                 004013f4     MarvellCheckPhyRate_v1.0.2.OBJ
 0001:000003fa       ___vba@07565500            004013fa     MarvellCheckPhyRate_v1.0.2.OBJ
 0001:000003fa       @__vba@07565500            004013fa     MarvellCheckPhyRate_v1.0.2.OBJ
 0001:00000400       @__vba@07565538            00401400     MarvellCheckPhyRate_v1.0.2.OBJ
 0001:00000400       ___vba@07565538            00401400     MarvellCheckPhyRate_v1.0.2.OBJ
 0001:00000406       ___vbaStrVarVal            00401406     MarvellCheckPhyRate_v1.0.2.OBJ
 0001:00000406       @__vbaStrVarVal            00401406     MarvellCheckPhyRate_v1.0.2.OBJ
 0001:0000040c       @__vbaI2I4                 0040140c     MarvellCheckPhyRate_v1.0.2.OBJ
 0001:0000040c       ___vbaI2I4                 0040140c     MarvellCheckPhyRate_v1.0.2.OBJ
 0001:00000412       ___vbaStrCompVar           00401412     MarvellCheckPhyRate_v1.0.2.OBJ
 0001:00000412       @__vbaStrCompVar           00401412     MarvellCheckPhyRate_v1.0.2.OBJ
 0001:00000418       ___vbaVarCmpEq             00401418     MarvellCheckPhyRate_v1.0.2.OBJ
 0001:00000418       @__vbaVarCmpEq             00401418     MarvellCheckPhyRate_v1.0.2.OBJ
 0001:0000041e       ___vba@075656E4            0040141e     MarvellCheckPhyRate_v1.0.2.OBJ
 0001:0000041e       @__vba@075656E4            0040141e     MarvellCheckPhyRate_v1.0.2.OBJ
 0001:00000424       @__vbaVarAnd               00401424     MarvellCheckPhyRate_v1.0.2.OBJ
 0001:00000424       ___vbaVarAnd               00401424     MarvellCheckPhyRate_v1.0.2.OBJ
 0001:0000042a       ___vbaBoolVarNull          0040142a     MarvellCheckPhyRate_v1.0.2.OBJ
 0001:0000042a       @__vbaBoolVarNull          0040142a     MarvellCheckPhyRate_v1.0.2.OBJ
 0001:00000430       @__vbaStrCmp               00401430     MarvellCheckPhyRate_v1.0.2.OBJ
 0001:00000430       ___vbaStrCmp               00401430     MarvellCheckPhyRate_v1.0.2.OBJ
 0001:00000436       @__vba@0756583C            00401436     MarvellCheckPhyRate_v1.0.2.OBJ
 0001:00000436       ___vba@0756583C            00401436     MarvellCheckPhyRate_v1.0.2.OBJ
 0001:0000043c       @__vbaStrVarMove           0040143c     MarvellCheckPhyRate_v1.0.2.OBJ
 0001:0000043c       ___vbaStrVarMove           0040143c     MarvellCheckPhyRate_v1.0.2.OBJ
 0001:00000442       @__vbaInStr                00401442     MarvellCheckPhyRate_v1.0.2.OBJ
 0001:00000442       ___vbaInStr                00401442     MarvellCheckPhyRate_v1.0.2.OBJ
 0001:00000448       @__vbaErrorOverflow        00401448     MarvellCheckPhyRate_v1.0.2.OBJ
 0001:00000448       ___vbaErrorOverflow        00401448     MarvellCheckPhyRate_v1.0.2.OBJ
 0001:0000044e       ___vbaEnd                  0040144e     MarvellCheckPhyRate_v1.0.2.OBJ
 0001:0000044e       @__vbaEnd                  0040144e     MarvellCheckPhyRate_v1.0.2.OBJ
 0001:00000454       @__vbaStrCopy              00401454     MarvellCheckPhyRate_v1.0.2.OBJ
 0001:00000454       ___vbaStrCopy              00401454     MarvellCheckPhyRate_v1.0.2.OBJ
 0001:0000045a       @__vba@075659F8            0040145a     MarvellCheckPhyRate_v1.0.2.OBJ
 0001:0000045a       ___vba@075659F8            0040145a     MarvellCheckPhyRate_v1.0.2.OBJ
 0001:00000460       ___vbaFreeVarList          00401460     MarvellCheckPhyRate_v1.0.2.OBJ
 0001:00000460       @__vbaFreeVarList          00401460     MarvellCheckPhyRate_v1.0.2.OBJ
 0001:00000466       @__vba@07565CC4            00401466     MarvellCheckPhyRate_v1.0.2.OBJ
 0001:00000466       ___vba@07565CC4            00401466     MarvellCheckPhyRate_v1.0.2.OBJ
 0001:0000046c       @__vbaObjSetAddref         0040146c     MarvellCheckPhyRate_v1.0.2.OBJ
 0001:0000046c       ___vbaObjSetAddref         0040146c     MarvellCheckPhyRate_v1.0.2.OBJ
 0001:00000472       ___vbaFreeObjList          00401472     MarvellCheckPhyRate_v1.0.2.OBJ
 0001:00000472       @__vbaFreeObjList          00401472     MarvellCheckPhyRate_v1.0.2.OBJ
 0001:00000478       ___vbaI4Str                00401478     MarvellCheckPhyRate_v1.0.2.OBJ
 0001:00000478       @__vbaI4Str                00401478     MarvellCheckPhyRate_v1.0.2.OBJ
 0001:0000047e       @__vbaNew2                 0040147e     MarvellCheckPhyRate_v1.0.2.OBJ
 0001:0000047e       ___vbaNew2                 0040147e     MarvellCheckPhyRate_v1.0.2.OBJ
 0001:00000484       ___vbaLateIdSt             00401484     MarvellCheckPhyRate_v1.0.2.OBJ
 0001:00000484       @__vbaLateIdSt             00401484     MarvellCheckPhyRate_v1.0.2.OBJ
 0001:0000048a       @__vbaLateIdCallLd         0040148a     MarvellCheckPhyRate_v1.0.2.OBJ
 0001:0000048a       ___vbaLateIdCallLd         0040148a     MarvellCheckPhyRate_v1.0.2.OBJ
 0001:00000490       ___vbaI2Var                00401490     MarvellCheckPhyRate_v1.0.2.OBJ
 0001:00000490       @__vbaI2Var                00401490     MarvellCheckPhyRate_v1.0.2.OBJ
 0001:00000496       @__vba@0755FD74            00401496     MarvellCheckPhyRate_v1.0.2.OBJ
 0001:00000496       ___vba@0755FD74            00401496     MarvellCheckPhyRate_v1.0.2.OBJ
 0001:0000049c       ___vbaOnError              0040149c     MarvellCheckPhyRate_v1.0.2.OBJ
 0001:0000049c       @__vbaOnError              0040149c     MarvellCheckPhyRate_v1.0.2.OBJ
 0001:000004a2       @__vbaVarDup               004014a2     MarvellCheckPhyRate_v1.0.2.OBJ
 0001:000004a2       ___vbaVarDup               004014a2     MarvellCheckPhyRate_v1.0.2.OBJ
 0001:000004a8       @__vba@0755FE40            004014a8     MarvellCheckPhyRate_v1.0.2.OBJ
 0001:000004a8       ___vba@0755FE40            004014a8     MarvellCheckPhyRate_v1.0.2.OBJ
 0001:000004ae       @__vbaFreeStrList          004014ae     MarvellCheckPhyRate_v1.0.2.OBJ
 0001:000004ae       ___vbaFreeStrList          004014ae     MarvellCheckPhyRate_v1.0.2.OBJ
 0001:000004b4       ___vbaFreeStr              004014b4     MarvellCheckPhyRate_v1.0.2.OBJ
 0001:000004b4       @__vbaFreeStr              004014b4     MarvellCheckPhyRate_v1.0.2.OBJ
 0001:000004ba       ___vbaFreeVar              004014ba     MarvellCheckPhyRate_v1.0.2.OBJ
 0001:000004ba       @__vbaFreeVar              004014ba     MarvellCheckPhyRate_v1.0.2.OBJ
 0001:000004c0       @__vbaHresultCheckObj      004014c0     MarvellCheckPhyRate_v1.0.2.OBJ
 0001:000004c0       ___vbaHresultCheckObj      004014c0     MarvellCheckPhyRate_v1.0.2.OBJ
 0001:000004c6       @__vbaFreeObj              004014c6     MarvellCheckPhyRate_v1.0.2.OBJ
 0001:000004c6       ___vbaFreeObj              004014c6     MarvellCheckPhyRate_v1.0.2.OBJ
 0001:000004cc       ___vbaObjSet               004014cc     MarvellCheckPhyRate_v1.0.2.OBJ
 0001:000004cc       @__vbaObjSet               004014cc     MarvellCheckPhyRate_v1.0.2.OBJ
 0001:000004d2       ___vbaLateIdCall           004014d2     MarvellCheckPhyRate_v1.0.2.OBJ
 0001:000004d2       @__vbaLateIdCall           004014d2     MarvellCheckPhyRate_v1.0.2.OBJ
 0001:000004d8       ___vbaStrCat               004014d8     MarvellCheckPhyRate_v1.0.2.OBJ
 0001:000004d8       @__vbaStrCat               004014d8     MarvellCheckPhyRate_v1.0.2.OBJ
 0001:000004de       @__vbaStrMove              004014de     MarvellCheckPhyRate_v1.0.2.OBJ
 0001:000004de       ___vbaStrMove              004014de     MarvellCheckPhyRate_v1.0.2.OBJ
 0001:00000528       ___vbaS                    00401528     MarvellCheckPhyRate_v1.0.2.OBJ
 0001:00005bd4       ___vba@007819BC            00406bd4     MarvellCheckPhyRate_v1.0.2.OBJ
 0001:0000620c       ___vba@0078339C            0040720c     MarvellCheckPhyRate_v1.0.2.OBJ
 0001:000071e0       ___vba@00783418            004081e0     MarvellCheckPhyRate_v1.0.2.OBJ
 0001:000071fe       ___vba@00783444            004081fe     MarvellCheckPhyRate_v1.0.2.OBJ
 0001:0000721c       ___vba@00783470            0040821c     MarvellCheckPhyRate_v1.0.2.OBJ
 0001:0000723a       ___vba@0078349C            0040823a     MarvellCheckPhyRate_v1.0.2.OBJ
 0001:00007258       ___vba@007834C8            00408258     MarvellCheckPhyRate_v1.0.2.OBJ
 0001:000073e4       ___vba@07564924            004083e4     MarvellCheckPhyRate_v1.0.2.OBJ
 0001:00007508       ___vba@0756497C            00408508     MarvellCheckPhyRate_v1.0.2.OBJ
 0001:00007514       ___vba@0756498C            00408514     MarvellCheckPhyRate_v1.0.2.OBJ
 0001:00007520       ___vba@0756499C            00408520     MarvellCheckPhyRate_v1.0.2.OBJ
 0001:00007530       ___vba@075649B0            00408530     MarvellCheckPhyRate_v1.0.2.OBJ
 0001:00007540       ___vba@075649C4            00408540     MarvellCheckPhyRate_v1.0.2.OBJ
 0001:00007550       ___vba@075649D8            00408550     MarvellCheckPhyRate_v1.0.2.OBJ
 0001:00007560       ___vba@075649EC            00408560     MarvellCheckPhyRate_v1.0.2.OBJ
 0001:00007570       ___vba@07564A00            00408570     MarvellCheckPhyRate_v1.0.2.OBJ
 0001:00007580       ___vba@07564A14            00408580     MarvellCheckPhyRate_v1.0.2.OBJ
 0001:00007590       ___vba@07564A28            00408590     MarvellCheckPhyRate_v1.0.2.OBJ
 0001:000075a0       ___vba@07564A3C            004085a0     MarvellCheckPhyRate_v1.0.2.OBJ
 0001:000075c4       ___vba@07564A64            004085c4     MarvellCheckPhyRate_v1.0.2.OBJ
 0001:000075d4       ___vba@07564A78            004085d4     MarvellCheckPhyRate_v1.0.2.OBJ
 0001:000075fc       ___vba@07564AA4            004085fc     MarvellCheckPhyRate_v1.0.2.OBJ
 0001:0000760c       ___vba@07564AB8            0040860c     MarvellCheckPhyRate_v1.0.2.OBJ
 0001:00007618       ___vba@07564AC8            00408618     MarvellCheckPhyRate_v1.0.2.OBJ
 0001:00007628       ___vba@07564ADC            00408628     MarvellCheckPhyRate_v1.0.2.OBJ
 0001:00007664       ___vba@07564B1C            00408664     MarvellCheckPhyRate_v1.0.2.OBJ
 0001:00007668       ___vba@00783E64            00408668     MarvellCheckPhyRate_v1.0.2.OBJ
 0001:00007690       ___vba@00783E90            00408690     MarvellCheckPhyRate_v1.0.2.OBJ
 0001:000076a0       ___vba@00783EA4            004086a0     MarvellCheckPhyRate_v1.0.2.OBJ
 0001:000076ac       ___vba@00783EB4            004086ac     MarvellCheckPhyRate_v1.0.2.OBJ
 0001:000076b8       ___vba@00783EC4            004086b8     MarvellCheckPhyRate_v1.0.2.OBJ
 0001:000076c0       ___vba@00783ED0            004086c0     MarvellCheckPhyRate_v1.0.2.OBJ
 0001:000076d0       ___vba@00783EE4            004086d0     MarvellCheckPhyRate_v1.0.2.OBJ
 0001:000076d8       ___vba@00783EF0            004086d8     MarvellCheckPhyRate_v1.0.2.OBJ
 0001:000076e0       ___vba@00783EFC            004086e0     MarvellCheckPhyRate_v1.0.2.OBJ
 0001:000076f0       ___vba@00783F10            004086f0     MarvellCheckPhyRate_v1.0.2.OBJ
 0001:000076fc       ___vba@00783F20            004086fc     MarvellCheckPhyRate_v1.0.2.OBJ
 0001:0000770c       ___vba@00783F34            0040870c     MarvellCheckPhyRate_v1.0.2.OBJ
 0001:00007714       ___vba@00783F40            00408714     MarvellCheckPhyRate_v1.0.2.OBJ
 0001:00007728       ___vba@00783F58            00408728     MarvellCheckPhyRate_v1.0.2.OBJ
 0001:00007730       ___vba@00783F64            00408730     MarvellCheckPhyRate_v1.0.2.OBJ
 0001:00007738       ___vba@00783F70            00408738     MarvellCheckPhyRate_v1.0.2.OBJ
 0001:00007740       ___vba@00783F7C            00408740     MarvellCheckPhyRate_v1.0.2.OBJ
 0001:0000774c       ___vba@00783F8C            0040874c     MarvellCheckPhyRate_v1.0.2.OBJ
 0001:00007754       ___vba@00783F98            00408754     MarvellCheckPhyRate_v1.0.2.OBJ
 0001:00007764       ___vba@00783FAC            00408764     MarvellCheckPhyRate_v1.0.2.OBJ
 0001:00007774       ___vba@00783FC0            00408774     MarvellCheckPhyRate_v1.0.2.OBJ
 0001:0000777c       ___vba@00783FCC            0040877c     MarvellCheckPhyRate_v1.0.2.OBJ
 0001:00007784       ___vba@00783FD8            00408784     MarvellCheckPhyRate_v1.0.2.OBJ
 0001:0000778c       ___vba@00783FE4            0040878c     MarvellCheckPhyRate_v1.0.2.OBJ
 0001:00007798       ___vba@00783FF4            00408798     MarvellCheckPhyRate_v1.0.2.OBJ
 0001:000077a8       ___vba@00784008            004087a8     MarvellCheckPhyRate_v1.0.2.OBJ
 0001:000077b0       ___vba@00784014            004087b0     MarvellCheckPhyRate_v1.0.2.OBJ
 0001:000077b8       ___vba@00784020            004087b8     MarvellCheckPhyRate_v1.0.2.OBJ
 0001:000077c0       ___vba@0078402C            004087c0     MarvellCheckPhyRate_v1.0.2.OBJ
 0001:000077d0       ___vba@00784040            004087d0     MarvellCheckPhyRate_v1.0.2.OBJ
 0001:000077d8       ___vba@0078404C            004087d8     MarvellCheckPhyRate_v1.0.2.OBJ
 0001:000077e0       ___vba@0078408C            004087e0     MarvellCheckPhyRate_v1.0.2.OBJ
 0001:000077f0       ___vba@007840A0            004087f0     MarvellCheckPhyRate_v1.0.2.OBJ
 0001:000077fc       ___vba@007840B0            004087fc     MarvellCheckPhyRate_v1.0.2.OBJ
 0001:0000783c       ___vba@007840F0            0040883c     MarvellCheckPhyRate_v1.0.2.OBJ
 0001:00007848       ___vba@00784100            00408848     MarvellCheckPhyRate_v1.0.2.OBJ
 0001:00007854       ___vba@00784110            00408854     MarvellCheckPhyRate_v1.0.2.OBJ
 0001:00007868       ___vba@00784128            00408868     MarvellCheckPhyRate_v1.0.2.OBJ
 0001:00007878       ___vba@0078413C            00408878     MarvellCheckPhyRate_v1.0.2.OBJ
 0001:00007884       ___vba@0078414C            00408884     MarvellCheckPhyRate_v1.0.2.OBJ
 0001:0000788c       ___vba@00784158            0040888c     MarvellCheckPhyRate_v1.0.2.OBJ
 0001:00007890       ___vba@00784164            00408890     MarvellCheckPhyRate_v1.0.2.OBJ
 0001:000078a4       ___vba@00784178            004088a4     MarvellCheckPhyRate_v1.0.2.OBJ
 0001:000078d8       ___vba@007841B4            004088d8     MarvellCheckPhyRate_v1.0.2.OBJ
 0001:000078ec       ___vba@007841C8            004088ec     MarvellCheckPhyRate_v1.0.2.OBJ
 0001:00007918       ___vba@007841F8            00408918     MarvellCheckPhyRate_v1.0.2.OBJ
 0001:00007948       ___vba@0078422C            00408948     MarvellCheckPhyRate_v1.0.2.OBJ
 0001:0000795c       ___vba@00784244            0040895c     MarvellCheckPhyRate_v1.0.2.OBJ
 0001:00007970       ___vba@0078425C            00408970     MarvellCheckPhyRate_v1.0.2.OBJ
 0001:00007984       ___vba@00784274            00408984     MarvellCheckPhyRate_v1.0.2.OBJ
 0001:0000798c       ___vba@007851CC            0040898c     MarvellCheckPhyRate_v1.0.2.OBJ
 0001:000079b4       ___vba@007851F8            004089b4     MarvellCheckPhyRate_v1.0.2.OBJ
 0001:000079c4       ___vba@0078520C            004089c4     MarvellCheckPhyRate_v1.0.2.OBJ
 0001:000079cc       ___vba@00785218            004089cc     MarvellCheckPhyRate_v1.0.2.OBJ
 0001:000079d4       ___vba@00785224            004089d4     MarvellCheckPhyRate_v1.0.2.OBJ
 0001:000079ec       ___vba@00785240            004089ec     MarvellCheckPhyRate_v1.0.2.OBJ
 0001:000079f8       ___vba@00785250            004089f8     MarvellCheckPhyRate_v1.0.2.OBJ
 0001:00007a08       ___vba@00785268            00408a08     MarvellCheckPhyRate_v1.0.2.OBJ
 0001:00007a1c       ___vba@0078527C            00408a1c     MarvellCheckPhyRate_v1.0.2.OBJ
 0001:00007a3c       ___vba@007852A0            00408a3c     MarvellCheckPhyRate_v1.0.2.OBJ
 0001:00007a4c       ___vba@007852B8            00408a4c     MarvellCheckPhyRate_v1.0.2.OBJ
 0001:00007a5c       ___vba@007852CC            00408a5c     MarvellCheckPhyRate_v1.0.2.OBJ
 0001:00007a6c       ___vba@007852E0            00408a6c     MarvellCheckPhyRate_v1.0.2.OBJ
 0001:00007a80       ___vba@007852F4            00408a80     MarvellCheckPhyRate_v1.0.2.OBJ
 0001:00007ad8       ___vba@00785350            00408ad8     MarvellCheckPhyRate_v1.0.2.OBJ
 0001:00007afc       ___vba@00785378            00408afc     MarvellCheckPhyRate_v1.0.2.OBJ
 0001:00007b04       ___vba@00785384            00408b04     MarvellCheckPhyRate_v1.0.2.OBJ
 0001:00007b10       ___vba@00785394            00408b10     MarvellCheckPhyRate_v1.0.2.OBJ
 0001:00007b18       ___vba@007853A0            00408b18     MarvellCheckPhyRate_v1.0.2.OBJ
 0001:00007b30       ___vba@00782D24            00408b30     MarvellCheckPhyRate_v1.0.2.OBJ
 0001:00007b48       ___vba@00782D40            00408b48     MarvellCheckPhyRate_v1.0.2.OBJ
 0001:00007b60       ___vba@00782D5C            00408b60     MarvellCheckPhyRate_v1.0.2.OBJ
 0001:00007b68       ___vba@00782D68            00408b68     MarvellCheckPhyRate_v1.0.2.OBJ
 0001:00007b70       ___vba@00782D74            00408b70     MarvellCheckPhyRate_v1.0.2.OBJ
 0001:00007b78       ___vba@00782D80            00408b78     MarvellCheckPhyRate_v1.0.2.OBJ
 0001:00007b88       ___vba@00782D94            00408b88     MarvellCheckPhyRate_v1.0.2.OBJ
 0001:00007b9c       ___vba@00782DAC            00408b9c     MarvellCheckPhyRate_v1.0.2.OBJ
 0001:00007bb4       ___vba@00782DC8            00408bb4     MarvellCheckPhyRate_v1.0.2.OBJ
 0001:00007bcc       ___vba@00782DE4            00408bcc     MarvellCheckPhyRate_v1.0.2.OBJ
 0001:00007be4       ___vba@00782E00            00408be4     MarvellCheckPhyRate_v1.0.2.OBJ
 0001:00007bf8       ___vba@00782E18            00408bf8     MarvellCheckPhyRate_v1.0.2.OBJ
 0001:00007c1c       ___vba@00782E40            00408c1c     MarvellCheckPhyRate_v1.0.2.OBJ
 0001:00007c4c       ___vba@00782E74            00408c4c     MarvellCheckPhyRate_v1.0.2.OBJ
 0001:00007c58       ___vba@00782E84            00408c58     MarvellCheckPhyRate_v1.0.2.OBJ
 0001:00007c80       ___vba@00782EB0            00408c80     MarvellCheckPhyRate_v1.0.2.OBJ
 0001:00007c94       ___vba@00782EC8            00408c94     MarvellCheckPhyRate_v1.0.2.OBJ
 0001:00007ca0       ___vba@00782ED8            00408ca0     MarvellCheckPhyRate_v1.0.2.OBJ
 0001:00007cac       ___vba@00782EE8            00408cac     MarvellCheckPhyRate_v1.0.2.OBJ
 0001:00007cc4       ___vba@00782F04            00408cc4     MarvellCheckPhyRate_v1.0.2.OBJ
 0001:00007ce0       ___vba@00783174            00408ce0     MarvellCheckPhyRate_v1.0.2.OBJ
 0001:00007d14       ___vba@007831AC            00408d14     MarvellCheckPhyRate_v1.0.2.OBJ
 0001:00007d2c       ___vba@007831C8            00408d2c     MarvellCheckPhyRate_v1.0.2.OBJ
 0001:00007d64       ___vba@00783204            00408d64     MarvellCheckPhyRate_v1.0.2.OBJ
 0001:00007d80       ___vba@00783224            00408d80     MarvellCheckPhyRate_v1.0.2.OBJ
 0001:00007e28       ___vba@007832D0            00408e28     MarvellCheckPhyRate_v1.0.2.OBJ
 0001:00007e30       ___vba@007832DC            00408e30     MarvellCheckPhyRate_v1.0.2.OBJ
 0001:00007e44       ___vba@007832F4            00408e44     MarvellCheckPhyRate_v1.0.2.OBJ
 0001:00007e6c       ___vba@00783320            00408e6c     MarvellCheckPhyRate_v1.0.2.OBJ
 0001:00007e7c       ___vba@00783334            00408e7c     MarvellCheckPhyRate_v1.0.2.OBJ
 0001:00007ea0       ___vba@00784704            00408ea0     MarvellCheckPhyRate_v1.0.2.OBJ
 0001:00007edc       ___vba@00784744            00408edc     MarvellCheckPhyRate_v1.0.2.OBJ
 0001:00007ee8       ___vba@00784754            00408ee8     MarvellCheckPhyRate_v1.0.2.OBJ
 0001:00007f0c       ___vba@0078477C            00408f0c     MarvellCheckPhyRate_v1.0.2.OBJ
 0001:00007f30       ___vba@007847A4            00408f30     MarvellCheckPhyRate_v1.0.2.OBJ
 0001:00007f48       ___vba@007847C0            00408f48     MarvellCheckPhyRate_v1.0.2.OBJ
 0001:00007f74       ___vba@007847F0            00408f74     MarvellCheckPhyRate_v1.0.2.OBJ
 0001:00007f84       ___vba@00784804            00408f84     MarvellCheckPhyRate_v1.0.2.OBJ
 0001:00007f9c       ___vba@00784820            00408f9c     MarvellCheckPhyRate_v1.0.2.OBJ
 0001:00007fcc       ___vba@00784854            00408fcc     MarvellCheckPhyRate_v1.0.2.OBJ
 0001:00008004       ___vba@00784890            00409004     MarvellCheckPhyRate_v1.0.2.OBJ
 0001:00008020       ___vba@007848B0            00409020     MarvellCheckPhyRate_v1.0.2.OBJ
 0001:00008054       ___vba@007848E8            00409054     MarvellCheckPhyRate_v1.0.2.OBJ
 0001:0000806c       ___vba@00784B54            0040906c     MarvellCheckPhyRate_v1.0.2.OBJ
 0001:00008098       ___vba@00784B84            00409098     MarvellCheckPhyRate_v1.0.2.OBJ
 0001:000080ac       ___vba@00784B9C            004090ac     MarvellCheckPhyRate_v1.0.2.OBJ
 0001:000080d4       ___vba@00784BC8            004090d4     MarvellCheckPhyRate_v1.0.2.OBJ
 0001:000080e8       ___vba@00784BE0            004090e8     MarvellCheckPhyRate_v1.0.2.OBJ
 0001:00008110       ___vba@00784C0C            00409110     MarvellCheckPhyRate_v1.0.2.OBJ
 0001:00008124       ___vba@00784C24            00409124     MarvellCheckPhyRate_v1.0.2.OBJ
 0001:00008150       ___vba@00784C54            00409150     MarvellCheckPhyRate_v1.0.2.OBJ
 0001:00008164       ___vba@00784C6C            00409164     MarvellCheckPhyRate_v1.0.2.OBJ
 0001:00008190       ___vba@00784C9C            00409190     MarvellCheckPhyRate_v1.0.2.OBJ
 0001:000081a8       ___vba@00784CB8            004091a8     MarvellCheckPhyRate_v1.0.2.OBJ
 0001:000081c4       ___vba@00784CD8            004091c4     MarvellCheckPhyRate_v1.0.2.OBJ
 0001:000081e8       ___vba@00784D00            004091e8     MarvellCheckPhyRate_v1.0.2.OBJ
 0001:00008204       ___vba@00784D20            00409204     MarvellCheckPhyRate_v1.0.2.OBJ
 0001:00008210       ___vba@00784FA4            00409210     MarvellCheckPhyRate_v1.0.2.OBJ
 0001:00008244       ___vba@00784FDC            00409244     MarvellCheckPhyRate_v1.0.2.OBJ
 0001:00008264       ___vba@00785000            00409264     MarvellCheckPhyRate_v1.0.2.OBJ
 0001:00008298       ___vba@00785038            00409298     MarvellCheckPhyRate_v1.0.2.OBJ
 0001:00008344       ___vba@007850E8            00409344     MarvellCheckPhyRate_v1.0.2.OBJ
 0001:00008364       ___vba@0078510C            00409364     MarvellCheckPhyRate_v1.0.2.OBJ
 0001:00008388       ___vba@00785134            00409388     MarvellCheckPhyRate_v1.0.2.OBJ
 0001:000083b8       ___vba@00785168            004093b8     MarvellCheckPhyRate_v1.0.2.OBJ
 0001:000083f0       ___vba@007835C4            004093f0     MarvellCheckPhyRate_v1.0.2.OBJ
 0001:0000841c       ___vba@007835F4            0040941c     MarvellCheckPhyRate_v1.0.2.OBJ
 0001:00008444       ___vba@00783620            00409444     MarvellCheckPhyRate_v1.0.2.OBJ
 0001:0000846c       ___vba@0078364C            0040946c     MarvellCheckPhyRate_v1.0.2.OBJ
 0001:00008518       ___vba@007836FC            00409518     MarvellCheckPhyRate_v1.0.2.OBJ
 0001:00008540       ___vba@00783728            00409540     MarvellCheckPhyRate_v1.0.2.OBJ
 0001:00008564       ___vba@00783750            00409564     MarvellCheckPhyRate_v1.0.2.OBJ
 0001:00008580       ___vba@00783770            00409580     MarvellCheckPhyRate_v1.0.2.OBJ
 0001:000085ac       ___vba@007837A0            004095ac     MarvellCheckPhyRate_v1.0.2.OBJ
 0001:000085cc       ___vba@075642AC            004095cc     MarvellCheckPhyRate_v1.0.2.OBJ
 0001:000085f8       ___vba@075642DC            004095f8     MarvellCheckPhyRate_v1.0.2.OBJ
 0001:00008614       ___vba@075642FC            00409614     MarvellCheckPhyRate_v1.0.2.OBJ
 0001:00008648       ___vba@07564334            00409648     MarvellCheckPhyRate_v1.0.2.OBJ
 0001:000086ec       ___vba@075643DC            004096ec     MarvellCheckPhyRate_v1.0.2.OBJ
 0001:000086f8       ___vba@075643EC            004096f8     MarvellCheckPhyRate_v1.0.2.OBJ
 0001:00008708       ___vba@07564400            00409708     MarvellCheckPhyRate_v1.0.2.OBJ
 0001:000087b0       ___vba@075644D4            004097b0     MarvellCheckPhyRate_v1.0.2.OBJ
 0001:0000885c       ___vba@07564584            0040985c     MarvellCheckPhyRate_v1.0.2.OBJ
 0001:00008880       ___vba@075645AC            00409880     MarvellCheckPhyRate_v1.0.2.OBJ
 0001:000088ac       ___vba@075645E0            004098ac     MarvellCheckPhyRate_v1.0.2.OBJ
 0001:000088b8       ___vba@075645F0            004098b8     MarvellCheckPhyRate_v1.0.2.OBJ
 0001:000088c4       ___vba@075646A8            004098c4     MarvellCheckPhyRate_v1.0.2.OBJ
 0001:000088e0       ___vba@07565424            004098e0     MarvellCheckPhyRate_v1.0.2.OBJ
 0001:000088ec       ___vba@0756546C            004098ec     MarvellCheckPhyRate_v1.0.2.OBJ
 0001:000088fc       ___vba@075654B8            004098fc     MarvellCheckPhyRate_v1.0.2.OBJ
 0001:00008908       ___vba@07565570            00409908     MarvellCheckPhyRate_v1.0.2.OBJ
 0001:00008918       ___vba@075655BC            00409918     MarvellCheckPhyRate_v1.0.2.OBJ
 0001:00008924       ___vba@075655CC            00409924     MarvellCheckPhyRate_v1.0.2.OBJ
 0001:00008938       ___vba@0756564C            00409938     MarvellCheckPhyRate_v1.0.2.OBJ
 0001:00008948       ___vba@07565698            00409948     MarvellCheckPhyRate_v1.0.2.OBJ
 0001:00008958       ___vba@0756571C            00409958     MarvellCheckPhyRate_v1.0.2.OBJ
 0001:00008964       ___vba@07565764            00409964     MarvellCheckPhyRate_v1.0.2.OBJ
 0001:00008978       ___vba@075657B4            00409978     MarvellCheckPhyRate_v1.0.2.OBJ
 0001:00008984       ___vba@075657FC            00409984     MarvellCheckPhyRate_v1.0.2.OBJ
 0001:00008998       ___vba@07565874            00409998     MarvellCheckPhyRate_v1.0.2.OBJ
 0001:000089a8       ___vba@075658C0            004099a8     MarvellCheckPhyRate_v1.0.2.OBJ
 0001:000089b4       ___vba@07565908            004099b4     MarvellCheckPhyRate_v1.0.2.OBJ
 0001:000089d0       ___vba@07565964            004099d0     MarvellCheckPhyRate_v1.0.2.OBJ
 0001:000089dc       ___vba@075659AC            004099dc     MarvellCheckPhyRate_v1.0.2.OBJ
 0001:000089ec       ___vba@07565CFC            004099ec     MarvellCheckPhyRate_v1.0.2.OBJ
 0001:00008a00       ___vba@07565D4C            00409a00     MarvellCheckPhyRate_v1.0.2.OBJ
 0001:00008a14       ___vba@07565D9C            00409a14     MarvellCheckPhyRate_v1.0.2.OBJ
 0001:00008a20       ___vba@07565DE4            00409a20     MarvellCheckPhyRate_v1.0.2.OBJ
 0001:00008a2c       ___vba@07565E2C            00409a2c     MarvellCheckPhyRate_v1.0.2.OBJ
 0001:00008a3c       ___vba@0755FD2C            00409a3c     MarvellCheckPhyRate_v1.0.2.OBJ
 0001:00008a48       ___vba@0755FDAC            00409a48     MarvellCheckPhyRate_v1.0.2.OBJ
 0001:00008a58       ___vba@0755FDF8            00409a58     MarvellCheckPhyRate_v1.0.2.OBJ
 0001:00008a64       ___vba@0755FE78            00409a64     MarvellCheckPhyRate_v1.0.2.OBJ
 0001:00008a78       ___vba@0755FEC8            00409a78     MarvellCheckPhyRate_v1.0.2.OBJ
 0001:00008a88       ___vba@0755FEDC            00409a88     MarvellCheckPhyRate_v1.0.2.OBJ
 0001:00008a9c       ___vba@0755FF54            00409a9c     MarvellCheckPhyRate_v1.0.2.OBJ
 0001:00008aac       ___vba@0755FFA0            00409aac     MarvellCheckPhyRate_v1.0.2.OBJ
 0001:00008ac4       ___vba@0755FFF4            00409ac4     MarvellCheckPhyRate_v1.0.2.OBJ
 0001:00008ad4       ___vba@07560040            00409ad4     MarvellCheckPhyRate_v1.0.2.OBJ
 0001:00008ae0       ___vba@07560088            00409ae0     MarvellCheckPhyRate_v1.0.2.OBJ
 0001:00008af0       ___vba@075600D4            00409af0     MarvellCheckPhyRate_v1.0.2.OBJ
 0001:00008b00       ___vba@07564FD4            00409b00     MarvellCheckPhyRate_v1.0.2.OBJ
 0001:00008b10       ___vba@07564FE8            00409b10     MarvellCheckPhyRate_v1.0.2.OBJ
 0001:00008b30       ___vba@07564FF8            00409b30     MarvellCheckPhyRate_v1.0.2.OBJ
 0001:00008b4c       ___vba@07565030            00409b4c     MarvellCheckPhyRate_v1.0.2.OBJ
 0001:00008bf0       ___vba@00782AFC            00409bf0     MarvellCheckPhyRate_v1.0.2.OBJ
 0001:00008ca0       ___vba@07564D74            00409ca0     MarvellCheckPhyRate_v1.0.2.OBJ
 0001:00008cc8       ___vba@07564DA0            00409cc8     MarvellCheckPhyRate_v1.0.2.OBJ
 0001:00008ce0       ___vba@07564DBC            00409ce0     MarvellCheckPhyRate_v1.0.2.OBJ
 0001:00008cec       ___vba@07564DCC            00409cec     MarvellCheckPhyRate_v1.0.2.OBJ
 0001:00008cf8       ___vba@07564DDC            00409cf8     MarvellCheckPhyRate_v1.0.2.OBJ
 0001:00008d04       ___vba@07564DEC            00409d04     MarvellCheckPhyRate_v1.0.2.OBJ
 0001:00008d10       ___vba@07564DFC            00409d10     MarvellCheckPhyRate_v1.0.2.OBJ
 0001:00008d1c       ___vba@07564E0C            00409d1c     MarvellCheckPhyRate_v1.0.2.OBJ
 0001:00008d28       ___vba@07564E1C            00409d28     MarvellCheckPhyRate_v1.0.2.OBJ
 0001:00008d34       ___vba@07564E2C            00409d34     MarvellCheckPhyRate_v1.0.2.OBJ
 0001:00008d40       ___vba@07564E3C            00409d40     MarvellCheckPhyRate_v1.0.2.OBJ
 0001:00008d4c       ___vba@07564E4C            00409d4c     MarvellCheckPhyRate_v1.0.2.OBJ
 0001:00008d58       ___vba@07564E5C            00409d58     MarvellCheckPhyRate_v1.0.2.OBJ
 0001:00008d64       ___vba@07564E6C            00409d64     MarvellCheckPhyRate_v1.0.2.OBJ
 0001:00008d70       ___vba@07564E7C            00409d70     MarvellCheckPhyRate_v1.0.2.OBJ
 0001:00008d7c       ___vba@07564E8C            00409d7c     MarvellCheckPhyRate_v1.0.2.OBJ
 0001:00008f20       VB@BTXT                    00409f20     MarvellCheckPhyRate_v1.0.2.OBJ
 0001:00008f30       ?cmdinfo_Click@frmTelnet@@AAGXXZ 00409f30 f   TelnetClient.OBJ
 0001:000090f0       ?cmdSet@frmTelnet@@AAGXXZ  0040a0f0 f   TelnetClient.OBJ
 0001:00009610       ?Connect_Click@frmTelnet@@AAGXXZ 0040a610 f   TelnetClient.OBJ
 0001:00009d90       ?Disconnect_Click@frmTelnet@@AAGXXZ 0040ad90 f   TelnetClient.OBJ
 0001:00009f90       ?NotConnectedAlarm@frmTelnet@@AAGXXZ 0040af90 f   TelnetClient.OBJ
 0001:0000a0b0       ?cmdModify_Click@frmTelnet@@AAGXXZ 0040b0b0 f   TelnetClient.OBJ
 0001:0000a410       ?cmdStart_Click@frmTelnet@@AAGXXZ 0040b410 f   TelnetClient.OBJ
 0001:0000a480       ?Form_Load@frmTelnet@@AAGXXZ 0040b480 f   TelnetClient.OBJ
 0001:0000a5a0       ?Form_Paint@frmTelnet@@AAGXXZ 0040b5a0 f   TelnetClient.OBJ
 0001:0000a610       ?Form_QueryUnload@frmTelnet@@AAGXXZ 0040b610 f   TelnetClient.OBJ
 0001:0000a710       ?Form_Unload@frmTelnet@@AAGXXZ 0040b710 f   TelnetClient.OBJ
 0001:0000a780       ?mClose_Click@frmTelnet@@AAGXXZ 0040b780 f   TelnetClient.OBJ
 0001:0000a7b0       ?mExit_Click@frmTelnet@@AAGXXZ 0040b7b0 f   TelnetClient.OBJ
 0001:0000a7c0       ?ImgExit_Click@frmTelnet@@AAGXXZ 0040b7c0 f   TelnetClient.OBJ
 0001:0000a890       ?TimerState_Timer@frmTelnet@@AAGXXZ 0040b890 f   TelnetClient.OBJ
 0001:0000a930       ?WinsockClient_sendcomplete@frmTelnet@@AAGXXZ 0040b930 f   TelnetClient.OBJ
 0001:0000a9d0       ?initView@frmTelnet@@AAGXXZ 0040b9d0 f   TelnetClient.OBJ
 0001:0000ac80       ?WinsockClient_Close@frmTelnet@@AAGXXZ 0040bc80 f   TelnetClient.OBJ
 0001:0000ae00       ?WinsockClient_Connect@frmTelnet@@AAGXXZ 0040be00 f   TelnetClient.OBJ
 0001:0000b0e0       ?xtoi@frmTelnet@@AAGXXZ    0040c0e0 f   TelnetClient.OBJ
 0001:0000b180       ?WinsockClient_DataArrival@frmTelnet@@AAGXXZ 0040c180 f   TelnetClient.OBJ
 0001:0000c2f0       ?iac1@frmTelnet@@AAGXXZ    0040d2f0 f   TelnetClient.OBJ
 0001:0000c6e0       ?iac2@frmTelnet@@AAGXXZ    0040d6e0 f   TelnetClient.OBJ
 0001:0000d320       ?iac3@frmTelnet@@AAGXXZ    0040e320 f   TelnetClient.OBJ
 0001:0000d6f0       ?iac4@frmTelnet@@AAGXXZ    0040e6f0 f   TelnetClient.OBJ
 0001:0000db80       ?iac5@frmTelnet@@AAGXXZ    0040eb80 f   TelnetClient.OBJ
 0001:0000dc40       ?iac6@frmTelnet@@AAGXXZ    0040ec40 f   TelnetClient.OBJ
 0001:0000e020       ?WinsockClient_Error@frmTelnet@@AAGXXZ 0040f020 f   TelnetClient.OBJ
 0001:0000e0c0       VB@ETXT                    0040f0c0     MarvellCheckPhyRate_v1.0.2.OBJ
 0002:00000000       __adjust_fdiv              00410000     VBAEXE6:natsupp.obj
 0002:00000008       VB@BSS                     00410008     MarvellCheckPhyRate_v1.0.2.OBJ
 0002:00000010       ___vba@07564B68            00410010     MarvellCheckPhyRate_v1.0.2.OBJ
 0002:00000024       _controller                00410024     MarvellCheckPhyRate_v1.0.2.OBJ
 0002:0000034c       ___vba@07565958            0041034c     MarvellCheckPhyRate_v1.0.2.OBJ
 0002:0000038c       ___vba@0756B184            0041038c     MarvellCheckPhyRate_v1.0.2.OBJ

 entry point at        0001:00000528

 Static symbols

