 MarvellCheckPhyRate_v1.0.1

 Timestamp is 5e5e07b5 (Tue Mar 03 16:31:01 2020)

 Preferred load address is 00400000

 Start         Length     Name                   Class
 0001:00000000 00000148H .idata$5                CODE
 0001:00000148 000001ecH .rdata                  CODE
 0001:00000340 00008bdcH .text                   CODE
 0001:00008f20 00000004H .text$0                 CODE
 0001:00008f30 00005190H .text$1                 CODE
 0001:0000e0c0 00000004H .text$2                 CODE
 0001:0000e0c4 00000014H .idata$2                CODE
 0001:0000e0d8 00000014H .idata$3                CODE
 0001:0000e0ec 00000148H .idata$4                CODE
 0001:0000e234 00000418H .idata$6                CODE
 0001:0000e64c 00000000H .edata                  CODE
 0002:00000000 00000004H .data                   DATA
 0002:00000008 00000b14H .bss                    DATA
 0003:00000000 00000118H .rsrc$01                DATA
 0003:00000120 00000702H .rsrc$02                DATA

  Address         Publics by Value              Rva+Base     Lib:Object

 0001:00000000       __imp___CIcos              00401000     MarvellCheckPhyRate_v1.0.1.OBJ
 0001:00000004       __imp___adj_fptan          00401004     MarvellCheckPhyRate_v1.0.1.OBJ
 0001:00000008       __imp_@__vba@0075E70C      00401008     MarvellCheckPhyRate_v1.0.1.OBJ
 0001:00000008       __imp____vba@0075E70C      00401008     MarvellCheckPhyRate_v1.0.1.OBJ
 0001:0000000c       __imp_@__vbaFreeVar        0040100c     MarvellCheckPhyRate_v1.0.1.OBJ
 0001:0000000c       __imp____vbaFreeVar        0040100c     MarvellCheckPhyRate_v1.0.1.OBJ
 0001:00000010       __imp_@__vbaLateIdCall     00401010     MarvellCheckPhyRate_v1.0.1.OBJ
 0001:00000010       __imp____vbaLateIdCall     00401010     MarvellCheckPhyRate_v1.0.1.OBJ
 0001:00000014       __imp_@__vbaStrVarMove     00401014     MarvellCheckPhyRate_v1.0.1.OBJ
 0001:00000014       __imp____vbaStrVarMove     00401014     MarvellCheckPhyRate_v1.0.1.OBJ
 0001:00000018       __imp_@__vbaLenBstr        00401018     MarvellCheckPhyRate_v1.0.1.OBJ
 0001:00000018       __imp____vbaLenBstr        00401018     MarvellCheckPhyRate_v1.0.1.OBJ
 0001:0000001c       __imp____vbaFreeVarList    0040101c     MarvellCheckPhyRate_v1.0.1.OBJ
 0001:0000001c       __imp_@__vbaFreeVarList    0040101c     MarvellCheckPhyRate_v1.0.1.OBJ
 0001:00000020       __imp____vbaEnd            00401020     MarvellCheckPhyRate_v1.0.1.OBJ
 0001:00000020       __imp_@__vbaEnd            00401020     MarvellCheckPhyRate_v1.0.1.OBJ
 0001:00000024       __imp___adj_fdiv_m64       00401024     MarvellCheckPhyRate_v1.0.1.OBJ
 0001:00000028       __imp____vbaFreeObjList    00401028     MarvellCheckPhyRate_v1.0.1.OBJ
 0001:00000028       __imp_@__vbaFreeObjList    00401028     MarvellCheckPhyRate_v1.0.1.OBJ
 0001:0000002c       __imp_@__vba@0075E128      0040102c     MarvellCheckPhyRate_v1.0.1.OBJ
 0001:0000002c       __imp____vba@0075E128      0040102c     MarvellCheckPhyRate_v1.0.1.OBJ
 0001:00000030       __imp___adj_fprem1         00401030     MarvellCheckPhyRate_v1.0.1.OBJ
 0001:00000034       __imp____vbaStrCat         00401034     MarvellCheckPhyRate_v1.0.1.OBJ
 0001:00000034       __imp_@__vbaStrCat         00401034     MarvellCheckPhyRate_v1.0.1.OBJ
 0001:00000038       __imp_@__vbaHresultCheckObj 00401038     MarvellCheckPhyRate_v1.0.1.OBJ
 0001:00000038       __imp____vbaHresultCheckObj 00401038     MarvellCheckPhyRate_v1.0.1.OBJ
 0001:0000003c       __imp___adj_fdiv_m32       0040103c     MarvellCheckPhyRate_v1.0.1.OBJ
 0001:00000048       __imp_@__vbaObjSet         00401048     MarvellCheckPhyRate_v1.0.1.OBJ
 0001:00000048       __imp____vbaObjSet         00401048     MarvellCheckPhyRate_v1.0.1.OBJ
 0001:0000004c       __imp_@__vbaOnError        0040104c     MarvellCheckPhyRate_v1.0.1.OBJ
 0001:0000004c       __imp____vbaOnError        0040104c     MarvellCheckPhyRate_v1.0.1.OBJ
 0001:00000050       __imp____vba@0075ECEC      00401050     MarvellCheckPhyRate_v1.0.1.OBJ
 0001:00000050       __imp_@__vba@0075ECEC      00401050     MarvellCheckPhyRate_v1.0.1.OBJ
 0001:00000054       __imp___adj_fdiv_m16i      00401054     MarvellCheckPhyRate_v1.0.1.OBJ
 0001:0000005c       __imp_@__vbaObjSetAddref   0040105c     MarvellCheckPhyRate_v1.0.1.OBJ
 0001:0000005c       __imp____vbaObjSetAddref   0040105c     MarvellCheckPhyRate_v1.0.1.OBJ
 0001:00000060       __imp___adj_fdivr_m16i     00401060     MarvellCheckPhyRate_v1.0.1.OBJ
 0001:00000068       __imp_@__vba@0075E560      00401068     MarvellCheckPhyRate_v1.0.1.OBJ
 0001:00000068       __imp____vba@0075E560      00401068     MarvellCheckPhyRate_v1.0.1.OBJ
 0001:00000074       __imp_@__vbaBoolVarNull    00401074     MarvellCheckPhyRate_v1.0.1.OBJ
 0001:00000074       __imp____vbaBoolVarNull    00401074     MarvellCheckPhyRate_v1.0.1.OBJ
 0001:00000078       __imp____vbaFpR8           00401078     MarvellCheckPhyRate_v1.0.1.OBJ
 0001:00000078       __imp_@__vbaFpR8           00401078     MarvellCheckPhyRate_v1.0.1.OBJ
 0001:0000007c       __imp___CIsin              0040107c     MarvellCheckPhyRate_v1.0.1.OBJ
 0001:00000080       __imp____vba@0075E864      00401080     MarvellCheckPhyRate_v1.0.1.OBJ
 0001:00000080       __imp_@__vba@0075E864      00401080     MarvellCheckPhyRate_v1.0.1.OBJ
 0001:00000084       __imp____vbaChkstk         00401084     MarvellCheckPhyRate_v1.0.1.OBJ
 0001:0000008c       __imp____vbaGenerateBoundsError 0040108c     MarvellCheckPhyRate_v1.0.1.OBJ
 0001:0000008c       __imp_@__vbaGenerateBoundsError 0040108c     MarvellCheckPhyRate_v1.0.1.OBJ
 0001:00000090       __imp____vbaStrCmp         00401090     MarvellCheckPhyRate_v1.0.1.OBJ
 0001:00000090       __imp_@__vbaStrCmp         00401090     MarvellCheckPhyRate_v1.0.1.OBJ
 0001:00000094       __imp_@__vba@0075EA20      00401094     MarvellCheckPhyRate_v1.0.1.OBJ
 0001:00000094       __imp____vba@0075EA20      00401094     MarvellCheckPhyRate_v1.0.1.OBJ
 0001:00000098       __imp____vbaI2I4           00401098     MarvellCheckPhyRate_v1.0.1.OBJ
 0001:00000098       __imp_@__vbaI2I4           00401098     MarvellCheckPhyRate_v1.0.1.OBJ
 0001:000000a0       __imp___adj_fpatan         004010a0     MarvellCheckPhyRate_v1.0.1.OBJ
 0001:000000a4       __imp_@__vbaLateIdCallLd   004010a4     MarvellCheckPhyRate_v1.0.1.OBJ
 0001:000000a4       __imp____vbaLateIdCallLd   004010a4     MarvellCheckPhyRate_v1.0.1.OBJ
 0001:000000ac       __imp_@__vba@0075F250      004010ac     MarvellCheckPhyRate_v1.0.1.OBJ
 0001:000000ac       __imp____vba@0075F250      004010ac     MarvellCheckPhyRate_v1.0.1.OBJ
 0001:000000b0       __imp_@__vbaUI1I2          004010b0     MarvellCheckPhyRate_v1.0.1.OBJ
 0001:000000b0       __imp____vbaUI1I2          004010b0     MarvellCheckPhyRate_v1.0.1.OBJ
 0001:000000b4       __imp___CIsqrt             004010b4     MarvellCheckPhyRate_v1.0.1.OBJ
 0001:000000b8       __imp____vbaVarAnd         004010b8     MarvellCheckPhyRate_v1.0.1.OBJ
 0001:000000b8       __imp_@__vbaVarAnd         004010b8     MarvellCheckPhyRate_v1.0.1.OBJ
 0001:000000c0       __imp____vbaStrUI1         004010c0     MarvellCheckPhyRate_v1.0.1.OBJ
 0001:000000c0       __imp_@__vbaStrUI1         004010c0     MarvellCheckPhyRate_v1.0.1.OBJ
 0001:000000c4       __imp____vbaExceptHandler  004010c4     MarvellCheckPhyRate_v1.0.1.OBJ
 0001:000000c8       __imp___adj_fprem          004010c8     MarvellCheckPhyRate_v1.0.1.OBJ
 0001:000000cc       __imp___adj_fdivr_m64      004010cc     MarvellCheckPhyRate_v1.0.1.OBJ
 0001:000000d0       __imp____vbaFPException    004010d0     MarvellCheckPhyRate_v1.0.1.OBJ
 0001:000000d4       __imp_@__vbaStrCompVar     004010d4     MarvellCheckPhyRate_v1.0.1.OBJ
 0001:000000d4       __imp____vbaStrCompVar     004010d4     MarvellCheckPhyRate_v1.0.1.OBJ
 0001:000000d8       __imp_@__vbaStrVarVal      004010d8     MarvellCheckPhyRate_v1.0.1.OBJ
 0001:000000d8       __imp____vbaStrVarVal      004010d8     MarvellCheckPhyRate_v1.0.1.OBJ
 0001:000000dc       __imp____vba@0075F184      004010dc     MarvellCheckPhyRate_v1.0.1.OBJ
 0001:000000dc       __imp_@__vba@0075F184      004010dc     MarvellCheckPhyRate_v1.0.1.OBJ
 0001:000000e0       __imp_@__vbaI2Var          004010e0     MarvellCheckPhyRate_v1.0.1.OBJ
 0001:000000e0       __imp____vbaI2Var          004010e0     MarvellCheckPhyRate_v1.0.1.OBJ
 0001:000000e4       __imp_@__vba@0075E160      004010e4     MarvellCheckPhyRate_v1.0.1.OBJ
 0001:000000e4       __imp____vba@0075E160      004010e4     MarvellCheckPhyRate_v1.0.1.OBJ
 0001:000000e8       __imp___CIlog              004010e8     MarvellCheckPhyRate_v1.0.1.OBJ
 0001:000000ec       __imp____vbaErrorOverflow  004010ec     MarvellCheckPhyRate_v1.0.1.OBJ
 0001:000000ec       __imp_@__vbaErrorOverflow  004010ec     MarvellCheckPhyRate_v1.0.1.OBJ
 0001:000000f0       __imp____vbaNew2           004010f0     MarvellCheckPhyRate_v1.0.1.OBJ
 0001:000000f0       __imp_@__vbaNew2           004010f0     MarvellCheckPhyRate_v1.0.1.OBJ
 0001:000000f4       __imp____vbaInStr          004010f4     MarvellCheckPhyRate_v1.0.1.OBJ
 0001:000000f4       __imp_@__vbaInStr          004010f4     MarvellCheckPhyRate_v1.0.1.OBJ
 0001:000000f8       __imp___adj_fdiv_m32i      004010f8     MarvellCheckPhyRate_v1.0.1.OBJ
 0001:000000fc       __imp___adj_fdivr_m32i     004010fc     MarvellCheckPhyRate_v1.0.1.OBJ
 0001:00000100       __imp_@__vbaStrCopy        00401100     MarvellCheckPhyRate_v1.0.1.OBJ
 0001:00000100       __imp____vbaStrCopy        00401100     MarvellCheckPhyRate_v1.0.1.OBJ
 0001:00000104       __imp____vbaI4Str          00401104     MarvellCheckPhyRate_v1.0.1.OBJ
 0001:00000104       __imp_@__vbaI4Str          00401104     MarvellCheckPhyRate_v1.0.1.OBJ
 0001:00000108       __imp____vbaFreeStrList    00401108     MarvellCheckPhyRate_v1.0.1.OBJ
 0001:00000108       __imp_@__vbaFreeStrList    00401108     MarvellCheckPhyRate_v1.0.1.OBJ
 0001:0000010c       __imp___adj_fdivr_m32      0040110c     MarvellCheckPhyRate_v1.0.1.OBJ
 0001:00000110       __imp___adj_fdiv_r         00401110     MarvellCheckPhyRate_v1.0.1.OBJ
 0001:00000118       __imp_@__vbaVarCmpEq       00401118     MarvellCheckPhyRate_v1.0.1.OBJ
 0001:00000118       __imp____vbaVarCmpEq       00401118     MarvellCheckPhyRate_v1.0.1.OBJ
 0001:0000011c       __imp_@__vbaVarDup         0040111c     MarvellCheckPhyRate_v1.0.1.OBJ
 0001:0000011c       __imp____vbaVarDup         0040111c     MarvellCheckPhyRate_v1.0.1.OBJ
 0001:00000120       __imp___CIatan             00401120     MarvellCheckPhyRate_v1.0.1.OBJ
 0001:00000124       __imp_@__vbaStrMove        00401124     MarvellCheckPhyRate_v1.0.1.OBJ
 0001:00000124       __imp____vbaStrMove        00401124     MarvellCheckPhyRate_v1.0.1.OBJ
 0001:00000128       __imp___allmul             00401128     MarvellCheckPhyRate_v1.0.1.OBJ
 0001:0000012c       __imp____vbaLateIdSt       0040112c     MarvellCheckPhyRate_v1.0.1.OBJ
 0001:0000012c       __imp_@__vbaLateIdSt       0040112c     MarvellCheckPhyRate_v1.0.1.OBJ
 0001:00000130       __imp___CItan              00401130     MarvellCheckPhyRate_v1.0.1.OBJ
 0001:00000134       __imp___CIexp              00401134     MarvellCheckPhyRate_v1.0.1.OBJ
 0001:00000138       __imp____vbaFreeObj        00401138     MarvellCheckPhyRate_v1.0.1.OBJ
 0001:00000138       __imp_@__vbaFreeObj        00401138     MarvellCheckPhyRate_v1.0.1.OBJ
 0001:0000013c       __imp_@__vbaFreeStr        0040113c     MarvellCheckPhyRate_v1.0.1.OBJ
 0001:0000013c       __imp____vbaFreeStr        0040113c     MarvellCheckPhyRate_v1.0.1.OBJ
 0001:00000140       __imp____vba@0075E528      00401140     MarvellCheckPhyRate_v1.0.1.OBJ
 0001:00000140       __imp_@__vba@0075E528      00401140     MarvellCheckPhyRate_v1.0.1.OBJ
 0001:00000340       ___vbaChkstk               00401340     MarvellCheckPhyRate_v1.0.1.OBJ
 0001:00000340       VB@TEXT                    00401340     MarvellCheckPhyRate_v1.0.1.OBJ
 0001:00000346       ___vbaExceptHandler        00401346     MarvellCheckPhyRate_v1.0.1.OBJ
 0001:0000034c       ___vbaFPException          0040134c     MarvellCheckPhyRate_v1.0.1.OBJ
 0001:00000352       __adj_fdiv_m16i            00401352     MarvellCheckPhyRate_v1.0.1.OBJ
 0001:00000358       __adj_fdiv_m32             00401358     MarvellCheckPhyRate_v1.0.1.OBJ
 0001:0000035e       __adj_fdiv_m32i            0040135e     MarvellCheckPhyRate_v1.0.1.OBJ
 0001:00000364       __adj_fdiv_m64             00401364     MarvellCheckPhyRate_v1.0.1.OBJ
 0001:0000036a       __adj_fdiv_r               0040136a     MarvellCheckPhyRate_v1.0.1.OBJ
 0001:00000370       __adj_fdivr_m16i           00401370     MarvellCheckPhyRate_v1.0.1.OBJ
 0001:00000376       __adj_fdivr_m32            00401376     MarvellCheckPhyRate_v1.0.1.OBJ
 0001:0000037c       __adj_fdivr_m32i           0040137c     MarvellCheckPhyRate_v1.0.1.OBJ
 0001:00000382       __adj_fdivr_m64            00401382     MarvellCheckPhyRate_v1.0.1.OBJ
 0001:00000388       __adj_fpatan               00401388     MarvellCheckPhyRate_v1.0.1.OBJ
 0001:0000038e       __adj_fprem                0040138e     MarvellCheckPhyRate_v1.0.1.OBJ
 0001:00000394       __adj_fprem1               00401394     MarvellCheckPhyRate_v1.0.1.OBJ
 0001:0000039a       __adj_fptan                0040139a     MarvellCheckPhyRate_v1.0.1.OBJ
 0001:000003a0       __CIatan                   004013a0     MarvellCheckPhyRate_v1.0.1.OBJ
 0001:000003a6       __CIcos                    004013a6     MarvellCheckPhyRate_v1.0.1.OBJ
 0001:000003ac       __CIexp                    004013ac     MarvellCheckPhyRate_v1.0.1.OBJ
 0001:000003b2       __CIlog                    004013b2     MarvellCheckPhyRate_v1.0.1.OBJ
 0001:000003b8       __CIsin                    004013b8     MarvellCheckPhyRate_v1.0.1.OBJ
 0001:000003be       __CIsqrt                   004013be     MarvellCheckPhyRate_v1.0.1.OBJ
 0001:000003c4       __CItan                    004013c4     MarvellCheckPhyRate_v1.0.1.OBJ
 0001:000003ca       __allmul                   004013ca     MarvellCheckPhyRate_v1.0.1.OBJ
 0001:000003d0       ___vbaStrUI1               004013d0     MarvellCheckPhyRate_v1.0.1.OBJ
 0001:000003d0       @__vbaStrUI1               004013d0     MarvellCheckPhyRate_v1.0.1.OBJ
 0001:000003d6       ___vba@0075E128            004013d6     MarvellCheckPhyRate_v1.0.1.OBJ
 0001:000003d6       @__vba@0075E128            004013d6     MarvellCheckPhyRate_v1.0.1.OBJ
 0001:000003dc       ___vba@0075E160            004013dc     MarvellCheckPhyRate_v1.0.1.OBJ
 0001:000003dc       @__vba@0075E160            004013dc     MarvellCheckPhyRate_v1.0.1.OBJ
 0001:000003e2       @__vbaGenerateBoundsError  004013e2     MarvellCheckPhyRate_v1.0.1.OBJ
 0001:000003e2       ___vbaGenerateBoundsError  004013e2     MarvellCheckPhyRate_v1.0.1.OBJ
 0001:000003e8       ___vbaUI1I2                004013e8     MarvellCheckPhyRate_v1.0.1.OBJ
 0001:000003e8       @__vbaUI1I2                004013e8     MarvellCheckPhyRate_v1.0.1.OBJ
 0001:000003ee       ___vbaLenBstr              004013ee     MarvellCheckPhyRate_v1.0.1.OBJ
 0001:000003ee       @__vbaLenBstr              004013ee     MarvellCheckPhyRate_v1.0.1.OBJ
 0001:000003f4       @__vbaFpR8                 004013f4     MarvellCheckPhyRate_v1.0.1.OBJ
 0001:000003f4       ___vbaFpR8                 004013f4     MarvellCheckPhyRate_v1.0.1.OBJ
 0001:000003fa       ___vba@0075E528            004013fa     MarvellCheckPhyRate_v1.0.1.OBJ
 0001:000003fa       @__vba@0075E528            004013fa     MarvellCheckPhyRate_v1.0.1.OBJ
 0001:00000400       ___vba@0075E560            00401400     MarvellCheckPhyRate_v1.0.1.OBJ
 0001:00000400       @__vba@0075E560            00401400     MarvellCheckPhyRate_v1.0.1.OBJ
 0001:00000406       ___vbaStrVarVal            00401406     MarvellCheckPhyRate_v1.0.1.OBJ
 0001:00000406       @__vbaStrVarVal            00401406     MarvellCheckPhyRate_v1.0.1.OBJ
 0001:0000040c       @__vbaI2I4                 0040140c     MarvellCheckPhyRate_v1.0.1.OBJ
 0001:0000040c       ___vbaI2I4                 0040140c     MarvellCheckPhyRate_v1.0.1.OBJ
 0001:00000412       ___vbaStrCompVar           00401412     MarvellCheckPhyRate_v1.0.1.OBJ
 0001:00000412       @__vbaStrCompVar           00401412     MarvellCheckPhyRate_v1.0.1.OBJ
 0001:00000418       ___vbaVarCmpEq             00401418     MarvellCheckPhyRate_v1.0.1.OBJ
 0001:00000418       @__vbaVarCmpEq             00401418     MarvellCheckPhyRate_v1.0.1.OBJ
 0001:0000041e       ___vba@0075E70C            0040141e     MarvellCheckPhyRate_v1.0.1.OBJ
 0001:0000041e       @__vba@0075E70C            0040141e     MarvellCheckPhyRate_v1.0.1.OBJ
 0001:00000424       @__vbaVarAnd               00401424     MarvellCheckPhyRate_v1.0.1.OBJ
 0001:00000424       ___vbaVarAnd               00401424     MarvellCheckPhyRate_v1.0.1.OBJ
 0001:0000042a       ___vbaBoolVarNull          0040142a     MarvellCheckPhyRate_v1.0.1.OBJ
 0001:0000042a       @__vbaBoolVarNull          0040142a     MarvellCheckPhyRate_v1.0.1.OBJ
 0001:00000430       @__vbaStrCmp               00401430     MarvellCheckPhyRate_v1.0.1.OBJ
 0001:00000430       ___vbaStrCmp               00401430     MarvellCheckPhyRate_v1.0.1.OBJ
 0001:00000436       ___vba@0075E864            00401436     MarvellCheckPhyRate_v1.0.1.OBJ
 0001:00000436       @__vba@0075E864            00401436     MarvellCheckPhyRate_v1.0.1.OBJ
 0001:0000043c       ___vbaStrVarMove           0040143c     MarvellCheckPhyRate_v1.0.1.OBJ
 0001:0000043c       @__vbaStrVarMove           0040143c     MarvellCheckPhyRate_v1.0.1.OBJ
 0001:00000442       ___vbaInStr                00401442     MarvellCheckPhyRate_v1.0.1.OBJ
 0001:00000442       @__vbaInStr                00401442     MarvellCheckPhyRate_v1.0.1.OBJ
 0001:00000448       ___vbaErrorOverflow        00401448     MarvellCheckPhyRate_v1.0.1.OBJ
 0001:00000448       @__vbaErrorOverflow        00401448     MarvellCheckPhyRate_v1.0.1.OBJ
 0001:0000044e       @__vbaEnd                  0040144e     MarvellCheckPhyRate_v1.0.1.OBJ
 0001:0000044e       ___vbaEnd                  0040144e     MarvellCheckPhyRate_v1.0.1.OBJ
 0001:00000454       ___vbaStrCopy              00401454     MarvellCheckPhyRate_v1.0.1.OBJ
 0001:00000454       @__vbaStrCopy              00401454     MarvellCheckPhyRate_v1.0.1.OBJ
 0001:0000045a       @__vba@0075EA20            0040145a     MarvellCheckPhyRate_v1.0.1.OBJ
 0001:0000045a       ___vba@0075EA20            0040145a     MarvellCheckPhyRate_v1.0.1.OBJ
 0001:00000460       @__vbaFreeVarList          00401460     MarvellCheckPhyRate_v1.0.1.OBJ
 0001:00000460       ___vbaFreeVarList          00401460     MarvellCheckPhyRate_v1.0.1.OBJ
 0001:00000466       ___vba@0075ECEC            00401466     MarvellCheckPhyRate_v1.0.1.OBJ
 0001:00000466       @__vba@0075ECEC            00401466     MarvellCheckPhyRate_v1.0.1.OBJ
 0001:0000046c       @__vbaObjSetAddref         0040146c     MarvellCheckPhyRate_v1.0.1.OBJ
 0001:0000046c       ___vbaObjSetAddref         0040146c     MarvellCheckPhyRate_v1.0.1.OBJ
 0001:00000472       @__vbaFreeObjList          00401472     MarvellCheckPhyRate_v1.0.1.OBJ
 0001:00000472       ___vbaFreeObjList          00401472     MarvellCheckPhyRate_v1.0.1.OBJ
 0001:00000478       @__vbaI4Str                00401478     MarvellCheckPhyRate_v1.0.1.OBJ
 0001:00000478       ___vbaI4Str                00401478     MarvellCheckPhyRate_v1.0.1.OBJ
 0001:0000047e       @__vbaNew2                 0040147e     MarvellCheckPhyRate_v1.0.1.OBJ
 0001:0000047e       ___vbaNew2                 0040147e     MarvellCheckPhyRate_v1.0.1.OBJ
 0001:00000484       ___vbaLateIdSt             00401484     MarvellCheckPhyRate_v1.0.1.OBJ
 0001:00000484       @__vbaLateIdSt             00401484     MarvellCheckPhyRate_v1.0.1.OBJ
 0001:0000048a       ___vbaLateIdCallLd         0040148a     MarvellCheckPhyRate_v1.0.1.OBJ
 0001:0000048a       @__vbaLateIdCallLd         0040148a     MarvellCheckPhyRate_v1.0.1.OBJ
 0001:00000490       ___vbaI2Var                00401490     MarvellCheckPhyRate_v1.0.1.OBJ
 0001:00000490       @__vbaI2Var                00401490     MarvellCheckPhyRate_v1.0.1.OBJ
 0001:00000496       @__vba@0075F184            00401496     MarvellCheckPhyRate_v1.0.1.OBJ
 0001:00000496       ___vba@0075F184            00401496     MarvellCheckPhyRate_v1.0.1.OBJ
 0001:0000049c       @__vbaOnError              0040149c     MarvellCheckPhyRate_v1.0.1.OBJ
 0001:0000049c       ___vbaOnError              0040149c     MarvellCheckPhyRate_v1.0.1.OBJ
 0001:000004a2       ___vbaVarDup               004014a2     MarvellCheckPhyRate_v1.0.1.OBJ
 0001:000004a2       @__vbaVarDup               004014a2     MarvellCheckPhyRate_v1.0.1.OBJ
 0001:000004a8       ___vba@0075F250            004014a8     MarvellCheckPhyRate_v1.0.1.OBJ
 0001:000004a8       @__vba@0075F250            004014a8     MarvellCheckPhyRate_v1.0.1.OBJ
 0001:000004ae       ___vbaFreeStrList          004014ae     MarvellCheckPhyRate_v1.0.1.OBJ
 0001:000004ae       @__vbaFreeStrList          004014ae     MarvellCheckPhyRate_v1.0.1.OBJ
 0001:000004b4       @__vbaFreeStr              004014b4     MarvellCheckPhyRate_v1.0.1.OBJ
 0001:000004b4       ___vbaFreeStr              004014b4     MarvellCheckPhyRate_v1.0.1.OBJ
 0001:000004ba       ___vbaFreeVar              004014ba     MarvellCheckPhyRate_v1.0.1.OBJ
 0001:000004ba       @__vbaFreeVar              004014ba     MarvellCheckPhyRate_v1.0.1.OBJ
 0001:000004c0       ___vbaHresultCheckObj      004014c0     MarvellCheckPhyRate_v1.0.1.OBJ
 0001:000004c0       @__vbaHresultCheckObj      004014c0     MarvellCheckPhyRate_v1.0.1.OBJ
 0001:000004c6       ___vbaFreeObj              004014c6     MarvellCheckPhyRate_v1.0.1.OBJ
 0001:000004c6       @__vbaFreeObj              004014c6     MarvellCheckPhyRate_v1.0.1.OBJ
 0001:000004cc       @__vbaObjSet               004014cc     MarvellCheckPhyRate_v1.0.1.OBJ
 0001:000004cc       ___vbaObjSet               004014cc     MarvellCheckPhyRate_v1.0.1.OBJ
 0001:000004d2       @__vbaLateIdCall           004014d2     MarvellCheckPhyRate_v1.0.1.OBJ
 0001:000004d2       ___vbaLateIdCall           004014d2     MarvellCheckPhyRate_v1.0.1.OBJ
 0001:000004d8       ___vbaStrCat               004014d8     MarvellCheckPhyRate_v1.0.1.OBJ
 0001:000004d8       @__vbaStrCat               004014d8     MarvellCheckPhyRate_v1.0.1.OBJ
 0001:000004de       @__vbaStrMove              004014de     MarvellCheckPhyRate_v1.0.1.OBJ
 0001:000004de       ___vbaStrMove              004014de     MarvellCheckPhyRate_v1.0.1.OBJ
 0001:00000528       ___vbaS                    00401528     MarvellCheckPhyRate_v1.0.1.OBJ
 0001:00005bd4       ___vba@06E89A8C            00406bd4     MarvellCheckPhyRate_v1.0.1.OBJ
 0001:0000620c       ___vba@0076672C            0040720c     MarvellCheckPhyRate_v1.0.1.OBJ
 0001:000071e0       ___vba@007667A8            004081e0     MarvellCheckPhyRate_v1.0.1.OBJ
 0001:000071fe       ___vba@007667D4            004081fe     MarvellCheckPhyRate_v1.0.1.OBJ
 0001:0000721c       ___vba@00766800            0040821c     MarvellCheckPhyRate_v1.0.1.OBJ
 0001:0000723a       ___vba@0076682C            0040823a     MarvellCheckPhyRate_v1.0.1.OBJ
 0001:00007258       ___vba@00766858            00408258     MarvellCheckPhyRate_v1.0.1.OBJ
 0001:000073e4       ___vba@00723AD4            004083e4     MarvellCheckPhyRate_v1.0.1.OBJ
 0001:00007508       ___vba@00723B2C            00408508     MarvellCheckPhyRate_v1.0.1.OBJ
 0001:0000750c       ___vba@00723B34            0040850c     MarvellCheckPhyRate_v1.0.1.OBJ
 0001:0000751c       ___vba@00723B48            0040851c     MarvellCheckPhyRate_v1.0.1.OBJ
 0001:00007528       ___vba@00723B58            00408528     MarvellCheckPhyRate_v1.0.1.OBJ
 0001:00007534       ___vba@00723B68            00408534     MarvellCheckPhyRate_v1.0.1.OBJ
 0001:00007544       ___vba@00723B7C            00408544     MarvellCheckPhyRate_v1.0.1.OBJ
 0001:00007554       ___vba@00723B90            00408554     MarvellCheckPhyRate_v1.0.1.OBJ
 0001:00007564       ___vba@00723BA4            00408564     MarvellCheckPhyRate_v1.0.1.OBJ
 0001:00007574       ___vba@00723BB8            00408574     MarvellCheckPhyRate_v1.0.1.OBJ
 0001:00007584       ___vba@00723BCC            00408584     MarvellCheckPhyRate_v1.0.1.OBJ
 0001:00007594       ___vba@00723BE0            00408594     MarvellCheckPhyRate_v1.0.1.OBJ
 0001:000075a4       ___vba@00723BF4            004085a4     MarvellCheckPhyRate_v1.0.1.OBJ
 0001:000075c8       ___vba@00723C1C            004085c8     MarvellCheckPhyRate_v1.0.1.OBJ
 0001:000075d8       ___vba@00723C30            004085d8     MarvellCheckPhyRate_v1.0.1.OBJ
 0001:00007600       ___vba@00723C5C            00408600     MarvellCheckPhyRate_v1.0.1.OBJ
 0001:00007610       ___vba@00723C70            00408610     MarvellCheckPhyRate_v1.0.1.OBJ
 0001:0000761c       ___vba@00723C80            0040861c     MarvellCheckPhyRate_v1.0.1.OBJ
 0001:0000762c       ___vba@00723C94            0040862c     MarvellCheckPhyRate_v1.0.1.OBJ
 0001:00007668       ___vba@00720F7C            00408668     MarvellCheckPhyRate_v1.0.1.OBJ
 0001:0000766c       ___vba@00720F84            0040866c     MarvellCheckPhyRate_v1.0.1.OBJ
 0001:00007694       ___vba@00720FB0            00408694     MarvellCheckPhyRate_v1.0.1.OBJ
 0001:000076a4       ___vba@00720FC4            004086a4     MarvellCheckPhyRate_v1.0.1.OBJ
 0001:000076b0       ___vba@00720FD4            004086b0     MarvellCheckPhyRate_v1.0.1.OBJ
 0001:000076bc       ___vba@00720FE4            004086bc     MarvellCheckPhyRate_v1.0.1.OBJ
 0001:000076c4       ___vba@00720FF0            004086c4     MarvellCheckPhyRate_v1.0.1.OBJ
 0001:000076d4       ___vba@00721004            004086d4     MarvellCheckPhyRate_v1.0.1.OBJ
 0001:000076dc       ___vba@00721010            004086dc     MarvellCheckPhyRate_v1.0.1.OBJ
 0001:000076e4       ___vba@0072101C            004086e4     MarvellCheckPhyRate_v1.0.1.OBJ
 0001:000076f4       ___vba@00721030            004086f4     MarvellCheckPhyRate_v1.0.1.OBJ
 0001:00007700       ___vba@00721040            00408700     MarvellCheckPhyRate_v1.0.1.OBJ
 0001:00007710       ___vba@00721054            00408710     MarvellCheckPhyRate_v1.0.1.OBJ
 0001:00007718       ___vba@00721060            00408718     MarvellCheckPhyRate_v1.0.1.OBJ
 0001:0000772c       ___vba@00721078            0040872c     MarvellCheckPhyRate_v1.0.1.OBJ
 0001:00007734       ___vba@00721084            00408734     MarvellCheckPhyRate_v1.0.1.OBJ
 0001:0000773c       ___vba@00721090            0040873c     MarvellCheckPhyRate_v1.0.1.OBJ
 0001:00007744       ___vba@0072109C            00408744     MarvellCheckPhyRate_v1.0.1.OBJ
 0001:00007750       ___vba@007210AC            00408750     MarvellCheckPhyRate_v1.0.1.OBJ
 0001:00007758       ___vba@007210B8            00408758     MarvellCheckPhyRate_v1.0.1.OBJ
 0001:00007768       ___vba@007210CC            00408768     MarvellCheckPhyRate_v1.0.1.OBJ
 0001:00007778       ___vba@007210E0            00408778     MarvellCheckPhyRate_v1.0.1.OBJ
 0001:00007780       ___vba@007210EC            00408780     MarvellCheckPhyRate_v1.0.1.OBJ
 0001:00007788       ___vba@007210F8            00408788     MarvellCheckPhyRate_v1.0.1.OBJ
 0001:00007790       ___vba@00721104            00408790     MarvellCheckPhyRate_v1.0.1.OBJ
 0001:0000779c       ___vba@00721114            0040879c     MarvellCheckPhyRate_v1.0.1.OBJ
 0001:000077ac       ___vba@00721128            004087ac     MarvellCheckPhyRate_v1.0.1.OBJ
 0001:000077b4       ___vba@00721134            004087b4     MarvellCheckPhyRate_v1.0.1.OBJ
 0001:000077bc       ___vba@00721140            004087bc     MarvellCheckPhyRate_v1.0.1.OBJ
 0001:000077c4       ___vba@0072114C            004087c4     MarvellCheckPhyRate_v1.0.1.OBJ
 0001:000077d4       ___vba@00721160            004087d4     MarvellCheckPhyRate_v1.0.1.OBJ
 0001:000077dc       ___vba@0072116C            004087dc     MarvellCheckPhyRate_v1.0.1.OBJ
 0001:000077e8       ___vba@007213CC            004087e8     MarvellCheckPhyRate_v1.0.1.OBJ
 0001:000077f8       ___vba@007213E0            004087f8     MarvellCheckPhyRate_v1.0.1.OBJ
 0001:00007804       ___vba@007213F0            00408804     MarvellCheckPhyRate_v1.0.1.OBJ
 0001:00007844       ___vba@00721430            00408844     MarvellCheckPhyRate_v1.0.1.OBJ
 0001:00007850       ___vba@00721440            00408850     MarvellCheckPhyRate_v1.0.1.OBJ
 0001:0000785c       ___vba@00721450            0040885c     MarvellCheckPhyRate_v1.0.1.OBJ
 0001:00007870       ___vba@00721468            00408870     MarvellCheckPhyRate_v1.0.1.OBJ
 0001:00007880       ___vba@0072147C            00408880     MarvellCheckPhyRate_v1.0.1.OBJ
 0001:0000788c       ___vba@0072148C            0040888c     MarvellCheckPhyRate_v1.0.1.OBJ
 0001:00007894       ___vba@00721498            00408894     MarvellCheckPhyRate_v1.0.1.OBJ
 0001:00007898       ___vba@007214A4            00408898     MarvellCheckPhyRate_v1.0.1.OBJ
 0001:000078ac       ___vba@007214B8            004088ac     MarvellCheckPhyRate_v1.0.1.OBJ
 0001:000078e0       ___vba@007214F4            004088e0     MarvellCheckPhyRate_v1.0.1.OBJ
 0001:000078f4       ___vba@00721508            004088f4     MarvellCheckPhyRate_v1.0.1.OBJ
 0001:00007920       ___vba@00721538            00408920     MarvellCheckPhyRate_v1.0.1.OBJ
 0001:00007950       ___vba@0072156C            00408950     MarvellCheckPhyRate_v1.0.1.OBJ
 0001:00007964       ___vba@00721584            00408964     MarvellCheckPhyRate_v1.0.1.OBJ
 0001:00007978       ___vba@0072159C            00408978     MarvellCheckPhyRate_v1.0.1.OBJ
 0001:0000798c       ___vba@007215B4            0040898c     MarvellCheckPhyRate_v1.0.1.OBJ
 0001:00007994       ___vba@007220BC            00408994     MarvellCheckPhyRate_v1.0.1.OBJ
 0001:000079bc       ___vba@007220E8            004089bc     MarvellCheckPhyRate_v1.0.1.OBJ
 0001:000079cc       ___vba@007220FC            004089cc     MarvellCheckPhyRate_v1.0.1.OBJ
 0001:000079d4       ___vba@00722108            004089d4     MarvellCheckPhyRate_v1.0.1.OBJ
 0001:000079dc       ___vba@00722114            004089dc     MarvellCheckPhyRate_v1.0.1.OBJ
 0001:000079f4       ___vba@00722130            004089f4     MarvellCheckPhyRate_v1.0.1.OBJ
 0001:00007a00       ___vba@00722140            00408a00     MarvellCheckPhyRate_v1.0.1.OBJ
 0001:00007a10       ___vba@00722158            00408a10     MarvellCheckPhyRate_v1.0.1.OBJ
 0001:00007a24       ___vba@0072216C            00408a24     MarvellCheckPhyRate_v1.0.1.OBJ
 0001:00007a44       ___vba@00722190            00408a44     MarvellCheckPhyRate_v1.0.1.OBJ
 0001:00007a54       ___vba@007221A8            00408a54     MarvellCheckPhyRate_v1.0.1.OBJ
 0001:00007a64       ___vba@007221BC            00408a64     MarvellCheckPhyRate_v1.0.1.OBJ
 0001:00007a74       ___vba@007221D0            00408a74     MarvellCheckPhyRate_v1.0.1.OBJ
 0001:00007a88       ___vba@007221E4            00408a88     MarvellCheckPhyRate_v1.0.1.OBJ
 0001:00007ae0       ___vba@00722240            00408ae0     MarvellCheckPhyRate_v1.0.1.OBJ
 0001:00007b04       ___vba@00722268            00408b04     MarvellCheckPhyRate_v1.0.1.OBJ
 0001:00007b0c       ___vba@00722274            00408b0c     MarvellCheckPhyRate_v1.0.1.OBJ
 0001:00007b18       ___vba@00722284            00408b18     MarvellCheckPhyRate_v1.0.1.OBJ
 0001:00007b20       ___vba@00722290            00408b20     MarvellCheckPhyRate_v1.0.1.OBJ
 0001:00007b38       ___vba@0075D2D4            00408b38     MarvellCheckPhyRate_v1.0.1.OBJ
 0001:00007b50       ___vba@0075D2F0            00408b50     MarvellCheckPhyRate_v1.0.1.OBJ
 0001:00007b68       ___vba@0075D30C            00408b68     MarvellCheckPhyRate_v1.0.1.OBJ
 0001:00007b70       ___vba@0075D318            00408b70     MarvellCheckPhyRate_v1.0.1.OBJ
 0001:00007b78       ___vba@0075D324            00408b78     MarvellCheckPhyRate_v1.0.1.OBJ
 0001:00007b80       ___vba@0075D330            00408b80     MarvellCheckPhyRate_v1.0.1.OBJ
 0001:00007b90       ___vba@0075D344            00408b90     MarvellCheckPhyRate_v1.0.1.OBJ
 0001:00007ba4       ___vba@0075D35C            00408ba4     MarvellCheckPhyRate_v1.0.1.OBJ
 0001:00007bbc       ___vba@0075D378            00408bbc     MarvellCheckPhyRate_v1.0.1.OBJ
 0001:00007bd4       ___vba@0075D394            00408bd4     MarvellCheckPhyRate_v1.0.1.OBJ
 0001:00007bec       ___vba@0075D3B0            00408bec     MarvellCheckPhyRate_v1.0.1.OBJ
 0001:00007c00       ___vba@0075D3C8            00408c00     MarvellCheckPhyRate_v1.0.1.OBJ
 0001:00007c24       ___vba@0075D3F0            00408c24     MarvellCheckPhyRate_v1.0.1.OBJ
 0001:00007c54       ___vba@0075D424            00408c54     MarvellCheckPhyRate_v1.0.1.OBJ
 0001:00007c60       ___vba@0075D434            00408c60     MarvellCheckPhyRate_v1.0.1.OBJ
 0001:00007c88       ___vba@0075D460            00408c88     MarvellCheckPhyRate_v1.0.1.OBJ
 0001:00007c9c       ___vba@0075D478            00408c9c     MarvellCheckPhyRate_v1.0.1.OBJ
 0001:00007ca8       ___vba@0075D488            00408ca8     MarvellCheckPhyRate_v1.0.1.OBJ
 0001:00007cb4       ___vba@0075D498            00408cb4     MarvellCheckPhyRate_v1.0.1.OBJ
 0001:00007ccc       ___vba@0075D4B4            00408ccc     MarvellCheckPhyRate_v1.0.1.OBJ
 0001:00007ce8       ___vba@0075D4FC            00408ce8     MarvellCheckPhyRate_v1.0.1.OBJ
 0001:00007d1c       ___vba@0075D534            00408d1c     MarvellCheckPhyRate_v1.0.1.OBJ
 0001:00007d34       ___vba@0075D550            00408d34     MarvellCheckPhyRate_v1.0.1.OBJ
 0001:00007d6c       ___vba@0075D58C            00408d6c     MarvellCheckPhyRate_v1.0.1.OBJ
 0001:00007d88       ___vba@0075D5AC            00408d88     MarvellCheckPhyRate_v1.0.1.OBJ
 0001:00007e30       ___vba@0075D658            00408e30     MarvellCheckPhyRate_v1.0.1.OBJ
 0001:00007e38       ___vba@0075D664            00408e38     MarvellCheckPhyRate_v1.0.1.OBJ
 0001:00007e4c       ___vba@0075D67C            00408e4c     MarvellCheckPhyRate_v1.0.1.OBJ
 0001:00007e74       ___vba@0075D6A8            00408e74     MarvellCheckPhyRate_v1.0.1.OBJ
 0001:00007e84       ___vba@0075D6BC            00408e84     MarvellCheckPhyRate_v1.0.1.OBJ
 0001:00007ea8       ___vba@0075D724            00408ea8     MarvellCheckPhyRate_v1.0.1.OBJ
 0001:00007ee4       ___vba@0075D764            00408ee4     MarvellCheckPhyRate_v1.0.1.OBJ
 0001:00007ef0       ___vba@0075D774            00408ef0     MarvellCheckPhyRate_v1.0.1.OBJ
 0001:00007f14       ___vba@0075D79C            00408f14     MarvellCheckPhyRate_v1.0.1.OBJ
 0001:00007f38       ___vba@0075D7C4            00408f38     MarvellCheckPhyRate_v1.0.1.OBJ
 0001:00007f50       ___vba@0075D7E0            00408f50     MarvellCheckPhyRate_v1.0.1.OBJ
 0001:00007f7c       ___vba@0075D810            00408f7c     MarvellCheckPhyRate_v1.0.1.OBJ
 0001:00007f8c       ___vba@0075D824            00408f8c     MarvellCheckPhyRate_v1.0.1.OBJ
 0001:00007fa4       ___vba@0075D840            00408fa4     MarvellCheckPhyRate_v1.0.1.OBJ
 0001:00007fd4       ___vba@0075D874            00408fd4     MarvellCheckPhyRate_v1.0.1.OBJ
 0001:0000800c       ___vba@0075D8B0            0040900c     MarvellCheckPhyRate_v1.0.1.OBJ
 0001:00008028       ___vba@0075D8D0            00409028     MarvellCheckPhyRate_v1.0.1.OBJ
 0001:0000805c       ___vba@0075D908            0040905c     MarvellCheckPhyRate_v1.0.1.OBJ
 0001:00008074       ___vba@00721C6C            00409074     MarvellCheckPhyRate_v1.0.1.OBJ
 0001:000080a0       ___vba@00721C9C            004090a0     MarvellCheckPhyRate_v1.0.1.OBJ
 0001:000080b4       ___vba@00721CB4            004090b4     MarvellCheckPhyRate_v1.0.1.OBJ
 0001:000080dc       ___vba@00721CE0            004090dc     MarvellCheckPhyRate_v1.0.1.OBJ
 0001:000080f0       ___vba@00721CF8            004090f0     MarvellCheckPhyRate_v1.0.1.OBJ
 0001:00008118       ___vba@00721D24            00409118     MarvellCheckPhyRate_v1.0.1.OBJ
 0001:0000812c       ___vba@00721D3C            0040912c     MarvellCheckPhyRate_v1.0.1.OBJ
 0001:00008158       ___vba@00721D6C            00409158     MarvellCheckPhyRate_v1.0.1.OBJ
 0001:0000816c       ___vba@00721D84            0040916c     MarvellCheckPhyRate_v1.0.1.OBJ
 0001:00008198       ___vba@00721DB4            00409198     MarvellCheckPhyRate_v1.0.1.OBJ
 0001:000081b0       ___vba@00721DD0            004091b0     MarvellCheckPhyRate_v1.0.1.OBJ
 0001:000081cc       ___vba@00721DF0            004091cc     MarvellCheckPhyRate_v1.0.1.OBJ
 0001:000081f0       ___vba@00721E18            004091f0     MarvellCheckPhyRate_v1.0.1.OBJ
 0001:0000820c       ___vba@00721E38            0040920c     MarvellCheckPhyRate_v1.0.1.OBJ
 0001:00008218       ___vba@0075D94C            00409218     MarvellCheckPhyRate_v1.0.1.OBJ
 0001:0000824c       ___vba@0075D984            0040924c     MarvellCheckPhyRate_v1.0.1.OBJ
 0001:0000826c       ___vba@0075D9A8            0040926c     MarvellCheckPhyRate_v1.0.1.OBJ
 0001:000082a0       ___vba@0075D9E0            004092a0     MarvellCheckPhyRate_v1.0.1.OBJ
 0001:0000834c       ___vba@0075DA90            0040934c     MarvellCheckPhyRate_v1.0.1.OBJ
 0001:0000836c       ___vba@0075DAB4            0040936c     MarvellCheckPhyRate_v1.0.1.OBJ
 0001:00008390       ___vba@0075DADC            00409390     MarvellCheckPhyRate_v1.0.1.OBJ
 0001:000083c0       ___vba@0075DB10            004093c0     MarvellCheckPhyRate_v1.0.1.OBJ
 0001:000083f8       ___vba@0075DB74            004093f8     MarvellCheckPhyRate_v1.0.1.OBJ
 0001:00008424       ___vba@0075DBA4            00409424     MarvellCheckPhyRate_v1.0.1.OBJ
 0001:0000844c       ___vba@0075DBD0            0040944c     MarvellCheckPhyRate_v1.0.1.OBJ
 0001:00008474       ___vba@0075DBFC            00409474     MarvellCheckPhyRate_v1.0.1.OBJ
 0001:00008520       ___vba@0075DCAC            00409520     MarvellCheckPhyRate_v1.0.1.OBJ
 0001:00008548       ___vba@0075DCD8            00409548     MarvellCheckPhyRate_v1.0.1.OBJ
 0001:0000856c       ___vba@0075DD00            0040956c     MarvellCheckPhyRate_v1.0.1.OBJ
 0001:00008588       ___vba@0075DD20            00409588     MarvellCheckPhyRate_v1.0.1.OBJ
 0001:000085b4       ___vba@0075DD50            004095b4     MarvellCheckPhyRate_v1.0.1.OBJ
 0001:000085d4       ___vba@0075DD9C            004095d4     MarvellCheckPhyRate_v1.0.1.OBJ
 0001:00008600       ___vba@0075DDCC            00409600     MarvellCheckPhyRate_v1.0.1.OBJ
 0001:0000861c       ___vba@0075DDEC            0040961c     MarvellCheckPhyRate_v1.0.1.OBJ
 0001:00008650       ___vba@0075DE24            00409650     MarvellCheckPhyRate_v1.0.1.OBJ
 0001:000086f4       ___vba@0075DECC            004096f4     MarvellCheckPhyRate_v1.0.1.OBJ
 0001:00008700       ___vba@0075DEDC            00409700     MarvellCheckPhyRate_v1.0.1.OBJ
 0001:00008710       ___vba@0075DEF0            00409710     MarvellCheckPhyRate_v1.0.1.OBJ
 0001:000087b8       ___vba@0075DFC4            004097b8     MarvellCheckPhyRate_v1.0.1.OBJ
 0001:00008864       ___vba@0075E074            00409864     MarvellCheckPhyRate_v1.0.1.OBJ
 0001:00008888       ___vba@0075E09C            00409888     MarvellCheckPhyRate_v1.0.1.OBJ
 0001:000088b4       ___vba@0075E0D0            004098b4     MarvellCheckPhyRate_v1.0.1.OBJ
 0001:000088c0       ___vba@0075E0E0            004098c0     MarvellCheckPhyRate_v1.0.1.OBJ
 0001:000088cc       ___vba@0075E198            004098cc     MarvellCheckPhyRate_v1.0.1.OBJ
 0001:000088e8       ___vba@0075E44C            004098e8     MarvellCheckPhyRate_v1.0.1.OBJ
 0001:000088f4       ___vba@0075E494            004098f4     MarvellCheckPhyRate_v1.0.1.OBJ
 0001:00008904       ___vba@0075E4E0            00409904     MarvellCheckPhyRate_v1.0.1.OBJ
 0001:00008910       ___vba@0075E598            00409910     MarvellCheckPhyRate_v1.0.1.OBJ
 0001:00008920       ___vba@0075E5E4            00409920     MarvellCheckPhyRate_v1.0.1.OBJ
 0001:0000892c       ___vba@0075E5F4            0040992c     MarvellCheckPhyRate_v1.0.1.OBJ
 0001:00008940       ___vba@0075E674            00409940     MarvellCheckPhyRate_v1.0.1.OBJ
 0001:00008950       ___vba@0075E6C0            00409950     MarvellCheckPhyRate_v1.0.1.OBJ
 0001:00008960       ___vba@0075E744            00409960     MarvellCheckPhyRate_v1.0.1.OBJ
 0001:0000896c       ___vba@0075E78C            0040996c     MarvellCheckPhyRate_v1.0.1.OBJ
 0001:00008980       ___vba@0075E7DC            00409980     MarvellCheckPhyRate_v1.0.1.OBJ
 0001:0000898c       ___vba@0075E824            0040998c     MarvellCheckPhyRate_v1.0.1.OBJ
 0001:000089a0       ___vba@0075E89C            004099a0     MarvellCheckPhyRate_v1.0.1.OBJ
 0001:000089b0       ___vba@0075E8E8            004099b0     MarvellCheckPhyRate_v1.0.1.OBJ
 0001:000089bc       ___vba@0075E930            004099bc     MarvellCheckPhyRate_v1.0.1.OBJ
 0001:000089d8       ___vba@0075E98C            004099d8     MarvellCheckPhyRate_v1.0.1.OBJ
 0001:000089e4       ___vba@0075E9D4            004099e4     MarvellCheckPhyRate_v1.0.1.OBJ
 0001:000089f4       ___vba@0075ED24            004099f4     MarvellCheckPhyRate_v1.0.1.OBJ
 0001:00008a08       ___vba@0075ED74            00409a08     MarvellCheckPhyRate_v1.0.1.OBJ
 0001:00008a1c       ___vba@0075EDC4            00409a1c     MarvellCheckPhyRate_v1.0.1.OBJ
 0001:00008a28       ___vba@0075EE0C            00409a28     MarvellCheckPhyRate_v1.0.1.OBJ
 0001:00008a34       ___vba@0075EE54            00409a34     MarvellCheckPhyRate_v1.0.1.OBJ
 0001:00008a44       ___vba@0075F13C            00409a44     MarvellCheckPhyRate_v1.0.1.OBJ
 0001:00008a50       ___vba@0075F1BC            00409a50     MarvellCheckPhyRate_v1.0.1.OBJ
 0001:00008a60       ___vba@0075F208            00409a60     MarvellCheckPhyRate_v1.0.1.OBJ
 0001:00008a6c       ___vba@0075F288            00409a6c     MarvellCheckPhyRate_v1.0.1.OBJ
 0001:00008a80       ___vba@0075F2D8            00409a80     MarvellCheckPhyRate_v1.0.1.OBJ
 0001:00008a90       ___vba@0075F2EC            00409a90     MarvellCheckPhyRate_v1.0.1.OBJ
 0001:00008aa4       ___vba@0075F364            00409aa4     MarvellCheckPhyRate_v1.0.1.OBJ
 0001:00008ab4       ___vba@0075F3B0            00409ab4     MarvellCheckPhyRate_v1.0.1.OBJ
 0001:00008acc       ___vba@0075F404            00409acc     MarvellCheckPhyRate_v1.0.1.OBJ
 0001:00008adc       ___vba@0075F450            00409adc     MarvellCheckPhyRate_v1.0.1.OBJ
 0001:00008ae8       ___vba@0075F498            00409ae8     MarvellCheckPhyRate_v1.0.1.OBJ
 0001:00008af8       ___vba@0075F4E4            00409af8     MarvellCheckPhyRate_v1.0.1.OBJ
 0001:00008b08       ___vba@0075F58C            00409b08     MarvellCheckPhyRate_v1.0.1.OBJ
 0001:00008b18       ___vba@0075F5A0            00409b18     MarvellCheckPhyRate_v1.0.1.OBJ
 0001:00008b38       ___vba@0075F5B0            00409b38     MarvellCheckPhyRate_v1.0.1.OBJ
 0001:00008b54       ___vba@0075F5E8            00409b54     MarvellCheckPhyRate_v1.0.1.OBJ
 0001:00008bf8       ___vba@06F5C574            00409bf8     MarvellCheckPhyRate_v1.0.1.OBJ
 0001:00008ca8       ___vba@00723F14            00409ca8     MarvellCheckPhyRate_v1.0.1.OBJ
 0001:00008cd0       ___vba@00723F40            00409cd0     MarvellCheckPhyRate_v1.0.1.OBJ
 0001:00008ce8       ___vba@00723F5C            00409ce8     MarvellCheckPhyRate_v1.0.1.OBJ
 0001:00008cf4       ___vba@00723F6C            00409cf4     MarvellCheckPhyRate_v1.0.1.OBJ
 0001:00008d00       ___vba@00723F7C            00409d00     MarvellCheckPhyRate_v1.0.1.OBJ
 0001:00008d0c       ___vba@00723F8C            00409d0c     MarvellCheckPhyRate_v1.0.1.OBJ
 0001:00008d18       ___vba@00723F9C            00409d18     MarvellCheckPhyRate_v1.0.1.OBJ
 0001:00008d24       ___vba@00723FAC            00409d24     MarvellCheckPhyRate_v1.0.1.OBJ
 0001:00008d30       ___vba@00723FBC            00409d30     MarvellCheckPhyRate_v1.0.1.OBJ
 0001:00008d3c       ___vba@00723FCC            00409d3c     MarvellCheckPhyRate_v1.0.1.OBJ
 0001:00008d48       ___vba@00723FDC            00409d48     MarvellCheckPhyRate_v1.0.1.OBJ
 0001:00008d54       ___vba@00723FEC            00409d54     MarvellCheckPhyRate_v1.0.1.OBJ
 0001:00008d60       ___vba@00723FFC            00409d60     MarvellCheckPhyRate_v1.0.1.OBJ
 0001:00008d6c       ___vba@0072400C            00409d6c     MarvellCheckPhyRate_v1.0.1.OBJ
 0001:00008d78       ___vba@0072401C            00409d78     MarvellCheckPhyRate_v1.0.1.OBJ
 0001:00008d84       ___vba@0072402C            00409d84     MarvellCheckPhyRate_v1.0.1.OBJ
 0001:00008f20       VB@BTXT                    00409f20     MarvellCheckPhyRate_v1.0.1.OBJ
 0001:00008f30       ?cmdinfo_Click@frmTelnet@@AAGXXZ 00409f30 f   TelnetClient.OBJ
 0001:000090f0       ?cmdSet@frmTelnet@@AAGXXZ  0040a0f0 f   TelnetClient.OBJ
 0001:00009610       ?Connect_Click@frmTelnet@@AAGXXZ 0040a610 f   TelnetClient.OBJ
 0001:00009d90       ?Disconnect_Click@frmTelnet@@AAGXXZ 0040ad90 f   TelnetClient.OBJ
 0001:00009f90       ?NotConnectedAlarm@frmTelnet@@AAGXXZ 0040af90 f   TelnetClient.OBJ
 0001:0000a0b0       ?cmdModify_Click@frmTelnet@@AAGXXZ 0040b0b0 f   TelnetClient.OBJ
 0001:0000a410       ?cmdStart_Click@frmTelnet@@AAGXXZ 0040b410 f   TelnetClient.OBJ
 0001:0000a480       ?Form_Load@frmTelnet@@AAGXXZ 0040b480 f   TelnetClient.OBJ
 0001:0000a5a0       ?Form_Paint@frmTelnet@@AAGXXZ 0040b5a0 f   TelnetClient.OBJ
 0001:0000a610       ?Form_QueryUnload@frmTelnet@@AAGXXZ 0040b610 f   TelnetClient.OBJ
 0001:0000a710       ?Form_Unload@frmTelnet@@AAGXXZ 0040b710 f   TelnetClient.OBJ
 0001:0000a780       ?mClose_Click@frmTelnet@@AAGXXZ 0040b780 f   TelnetClient.OBJ
 0001:0000a7b0       ?mExit_Click@frmTelnet@@AAGXXZ 0040b7b0 f   TelnetClient.OBJ
 0001:0000a7c0       ?ImgExit_Click@frmTelnet@@AAGXXZ 0040b7c0 f   TelnetClient.OBJ
 0001:0000a890       ?TimerState_Timer@frmTelnet@@AAGXXZ 0040b890 f   TelnetClient.OBJ
 0001:0000a930       ?WinsockClient_sendcomplete@frmTelnet@@AAGXXZ 0040b930 f   TelnetClient.OBJ
 0001:0000a9d0       ?initView@frmTelnet@@AAGXXZ 0040b9d0 f   TelnetClient.OBJ
 0001:0000ac80       ?WinsockClient_Close@frmTelnet@@AAGXXZ 0040bc80 f   TelnetClient.OBJ
 0001:0000ae00       ?WinsockClient_Connect@frmTelnet@@AAGXXZ 0040be00 f   TelnetClient.OBJ
 0001:0000b0e0       ?xtoi@frmTelnet@@AAGXXZ    0040c0e0 f   TelnetClient.OBJ
 0001:0000b180       ?WinsockClient_DataArrival@frmTelnet@@AAGXXZ 0040c180 f   TelnetClient.OBJ
 0001:0000c2f0       ?iac1@frmTelnet@@AAGXXZ    0040d2f0 f   TelnetClient.OBJ
 0001:0000c6e0       ?iac2@frmTelnet@@AAGXXZ    0040d6e0 f   TelnetClient.OBJ
 0001:0000d320       ?iac3@frmTelnet@@AAGXXZ    0040e320 f   TelnetClient.OBJ
 0001:0000d6f0       ?iac4@frmTelnet@@AAGXXZ    0040e6f0 f   TelnetClient.OBJ
 0001:0000db80       ?iac5@frmTelnet@@AAGXXZ    0040eb80 f   TelnetClient.OBJ
 0001:0000dc40       ?iac6@frmTelnet@@AAGXXZ    0040ec40 f   TelnetClient.OBJ
 0001:0000e020       ?WinsockClient_Error@frmTelnet@@AAGXXZ 0040f020 f   TelnetClient.OBJ
 0001:0000e0c0       VB@ETXT                    0040f0c0     MarvellCheckPhyRate_v1.0.1.OBJ
 0002:00000000       __adjust_fdiv              00410000     VBAEXE6:natsupp.obj
 0002:00000008       VB@BSS                     00410008     MarvellCheckPhyRate_v1.0.1.OBJ
 0002:00000010       ___vba@00723D10            00410010     MarvellCheckPhyRate_v1.0.1.OBJ
 0002:00000024       _controller                00410024     MarvellCheckPhyRate_v1.0.1.OBJ
 0002:0000034c       ___vba@0075E980            0041034c     MarvellCheckPhyRate_v1.0.1.OBJ
 0002:0000038c       ___vba@06EB7774            0041038c     MarvellCheckPhyRate_v1.0.1.OBJ

 entry point at        0001:00000528

 Static symbols

